
Arduino_I2C_SLAVE.elf:     file format elf32-avr

Sections:
Idx Name          Size      VMA       LMA       File off  Algn
  0 .data         0000002a  00800100  0000132c  000013c0  2**0
                  CONTENTS, ALLOC, LOAD, DATA
  1 .text         0000132c  00000000  00000000  00000094  2**1
                  CONTENTS, ALLOC, LOAD, READONLY, CODE
  2 .bss          0000004d  0080012a  0080012a  000013ea  2**0
                  ALLOC
  3 .stab         000006cc  00000000  00000000  000013ec  2**2
                  CONTENTS, READONLY, DEBUGGING
  4 .stabstr      00000090  00000000  00000000  00001ab8  2**0
                  CONTENTS, READONLY, DEBUGGING
  5 .debug_aranges 00000028  00000000  00000000  00001b48  2**0
                  CONTENTS, READONLY, DEBUGGING
  6 .debug_pubnames 0000007f  00000000  00000000  00001b70  2**0
                  CONTENTS, READONLY, DEBUGGING
  7 .debug_info   00000296  00000000  00000000  00001bef  2**0
                  CONTENTS, READONLY, DEBUGGING
  8 .debug_abbrev 000000f5  00000000  00000000  00001e85  2**0
                  CONTENTS, READONLY, DEBUGGING
  9 .debug_line   000003f0  00000000  00000000  00001f7a  2**0
                  CONTENTS, READONLY, DEBUGGING
 10 .debug_frame  00000030  00000000  00000000  0000236c  2**2
                  CONTENTS, READONLY, DEBUGGING
 11 .debug_str    0000013c  00000000  00000000  0000239c  2**0
                  CONTENTS, READONLY, DEBUGGING
 12 .debug_loc    00000429  00000000  00000000  000024d8  2**0
                  CONTENTS, READONLY, DEBUGGING
 13 .debug_pubtypes 00000039  00000000  00000000  00002901  2**0
                  CONTENTS, READONLY, DEBUGGING
 14 .debug_ranges 00000018  00000000  00000000  0000293a  2**0
                  CONTENTS, READONLY, DEBUGGING

Disassembly of section .text:

00000000 <__vectors>:
       0:	0c 94 38 00 	jmp	0x70	; 0x70 <__dtors_end>
       4:	0c 94 60 00 	jmp	0xc0	; 0xc0 <__bad_interrupt>
       8:	0c 94 60 00 	jmp	0xc0	; 0xc0 <__bad_interrupt>
       c:	0c 94 60 00 	jmp	0xc0	; 0xc0 <__bad_interrupt>
      10:	0c 94 60 00 	jmp	0xc0	; 0xc0 <__bad_interrupt>
      14:	0c 94 60 00 	jmp	0xc0	; 0xc0 <__bad_interrupt>
      18:	0c 94 60 00 	jmp	0xc0	; 0xc0 <__bad_interrupt>
      1c:	0c 94 60 00 	jmp	0xc0	; 0xc0 <__bad_interrupt>
      20:	0c 94 60 00 	jmp	0xc0	; 0xc0 <__bad_interrupt>
      24:	0c 94 60 00 	jmp	0xc0	; 0xc0 <__bad_interrupt>
      28:	0c 94 60 00 	jmp	0xc0	; 0xc0 <__bad_interrupt>
      2c:	0c 94 60 00 	jmp	0xc0	; 0xc0 <__bad_interrupt>
      30:	0c 94 60 00 	jmp	0xc0	; 0xc0 <__bad_interrupt>
      34:	0c 94 60 00 	jmp	0xc0	; 0xc0 <__bad_interrupt>
      38:	0c 94 60 00 	jmp	0xc0	; 0xc0 <__bad_interrupt>
      3c:	0c 94 60 00 	jmp	0xc0	; 0xc0 <__bad_interrupt>
      40:	0c 94 60 00 	jmp	0xc0	; 0xc0 <__bad_interrupt>
      44:	0c 94 60 00 	jmp	0xc0	; 0xc0 <__bad_interrupt>
      48:	0c 94 60 00 	jmp	0xc0	; 0xc0 <__bad_interrupt>
      4c:	0c 94 60 00 	jmp	0xc0	; 0xc0 <__bad_interrupt>
      50:	0c 94 60 00 	jmp	0xc0	; 0xc0 <__bad_interrupt>
      54:	0c 94 60 00 	jmp	0xc0	; 0xc0 <__bad_interrupt>
      58:	0c 94 60 00 	jmp	0xc0	; 0xc0 <__bad_interrupt>
      5c:	0c 94 60 00 	jmp	0xc0	; 0xc0 <__bad_interrupt>
      60:	0c 94 f9 00 	jmp	0x1f2	; 0x1f2 <__vector_24>
      64:	0c 94 60 00 	jmp	0xc0	; 0xc0 <__bad_interrupt>

00000068 <__ctors_start>:
      68:	f5 01       	movw	r30, r10
      6a:	a6 07       	cpc	r26, r22

0000006c <__ctors_end>:
      6c:	fc 01       	movw	r30, r24
      6e:	ad 07       	cpc	r26, r29

00000070 <__dtors_end>:
      70:	11 24       	eor	r1, r1
      72:	1f be       	out	0x3f, r1	; 63
      74:	cf ef       	ldi	r28, 0xFF	; 255
      76:	d8 e0       	ldi	r29, 0x08	; 8
      78:	de bf       	out	0x3e, r29	; 62
      7a:	cd bf       	out	0x3d, r28	; 61

0000007c <__do_copy_data>:
      7c:	11 e0       	ldi	r17, 0x01	; 1
      7e:	a0 e0       	ldi	r26, 0x00	; 0
      80:	b1 e0       	ldi	r27, 0x01	; 1
      82:	ec e2       	ldi	r30, 0x2C	; 44
      84:	f3 e1       	ldi	r31, 0x13	; 19
      86:	02 c0       	rjmp	.+4      	; 0x8c <__do_copy_data+0x10>
      88:	05 90       	lpm	r0, Z+
      8a:	0d 92       	st	X+, r0
      8c:	aa 32       	cpi	r26, 0x2A	; 42
      8e:	b1 07       	cpc	r27, r17
      90:	d9 f7       	brne	.-10     	; 0x88 <__do_copy_data+0xc>

00000092 <__do_clear_bss>:
      92:	11 e0       	ldi	r17, 0x01	; 1
      94:	aa e2       	ldi	r26, 0x2A	; 42
      96:	b1 e0       	ldi	r27, 0x01	; 1
      98:	01 c0       	rjmp	.+2      	; 0x9c <.do_clear_bss_start>

0000009a <.do_clear_bss_loop>:
      9a:	1d 92       	st	X+, r1

0000009c <.do_clear_bss_start>:
      9c:	a7 37       	cpi	r26, 0x77	; 119
      9e:	b1 07       	cpc	r27, r17
      a0:	e1 f7       	brne	.-8      	; 0x9a <.do_clear_bss_loop>

000000a2 <__do_global_ctors>:
      a2:	10 e0       	ldi	r17, 0x00	; 0
      a4:	cc e6       	ldi	r28, 0x6C	; 108
      a6:	d0 e0       	ldi	r29, 0x00	; 0
      a8:	04 c0       	rjmp	.+8      	; 0xb2 <__do_global_ctors+0x10>
      aa:	22 97       	sbiw	r28, 0x02	; 2
      ac:	fe 01       	movw	r30, r28
      ae:	0e 94 52 08 	call	0x10a4	; 0x10a4 <__tablejump__>
      b2:	c8 36       	cpi	r28, 0x68	; 104
      b4:	d1 07       	cpc	r29, r17
      b6:	c9 f7       	brne	.-14     	; 0xaa <__do_global_ctors+0x8>
      b8:	0e 94 59 01 	call	0x2b2	; 0x2b2 <main>
      bc:	0c 94 89 09 	jmp	0x1312	; 0x1312 <__do_global_dtors>

000000c0 <__bad_interrupt>:
      c0:	0c 94 00 00 	jmp	0	; 0x0 <__vectors>

000000c4 <_Z11I2C_Requestv>:
      c4:	80 91 3e 01 	lds	r24, 0x013E
      c8:	80 93 bb 00 	sts	0x00BB, r24
      cc:	8f 5f       	subi	r24, 0xFF	; 255
      ce:	80 93 3e 01 	sts	0x013E, r24
      d2:	08 95       	ret

000000d4 <_Z8I2C_recvv>:
      d4:	cf 92       	push	r12
      d6:	df 92       	push	r13
      d8:	ef 92       	push	r14
      da:	ff 92       	push	r15
      dc:	0f 93       	push	r16
      de:	1f 93       	push	r17
      e0:	cf 93       	push	r28
      e2:	df 93       	push	r29
      e4:	20 91 3a 01 	lds	r18, 0x013A
      e8:	30 91 3b 01 	lds	r19, 0x013B
      ec:	40 91 bb 00 	lds	r20, 0x00BB
      f0:	8a e2       	ldi	r24, 0x2A	; 42
      f2:	91 e0       	ldi	r25, 0x01	; 1
      f4:	fc 01       	movw	r30, r24
      f6:	e2 0f       	add	r30, r18
      f8:	f3 1f       	adc	r31, r19
      fa:	40 83       	st	Z, r20
      fc:	2f 5f       	subi	r18, 0xFF	; 255
      fe:	3f 4f       	sbci	r19, 0xFF	; 255
     100:	30 93 3b 01 	sts	0x013B, r19
     104:	20 93 3a 01 	sts	0x013A, r18
     108:	82 0f       	add	r24, r18
     10a:	93 1f       	adc	r25, r19
     10c:	fc 01       	movw	r30, r24
     10e:	40 81       	ld	r20, Z
     110:	80 91 3c 01 	lds	r24, 0x013C
     114:	90 91 3d 01 	lds	r25, 0x013D
     118:	84 0f       	add	r24, r20
     11a:	91 1d       	adc	r25, r1
     11c:	90 93 3d 01 	sts	0x013D, r25
     120:	80 93 3c 01 	sts	0x013C, r24
     124:	20 31       	cpi	r18, 0x10	; 16
     126:	31 05       	cpc	r19, r1
     128:	09 f0       	breq	.+2      	; 0x12c <_Z8I2C_recvv+0x58>
     12a:	5a c0       	rjmp	.+180    	; 0x1e0 <_Z8I2C_recvv+0x10c>
     12c:	60 e1       	ldi	r22, 0x10	; 16
     12e:	70 e0       	ldi	r23, 0x00	; 0
     130:	0e 94 07 08 	call	0x100e	; 0x100e <__divmodhi4>
     134:	8c 01       	movw	r16, r24
     136:	10 92 3d 01 	sts	0x013D, r1
     13a:	10 92 3c 01 	sts	0x013C, r1
     13e:	10 92 3b 01 	sts	0x013B, r1
     142:	10 92 3a 01 	sts	0x013A, r1
     146:	80 91 39 01 	lds	r24, 0x0139
     14a:	90 e0       	ldi	r25, 0x00	; 0
     14c:	80 17       	cp	r24, r16
     14e:	91 07       	cpc	r25, r17
     150:	f1 f4       	brne	.+60     	; 0x18e <_Z8I2C_recvv+0xba>
     152:	ca e2       	ldi	r28, 0x2A	; 42
     154:	d1 e0       	ldi	r29, 0x01	; 1
     156:	0f 2e       	mov	r0, r31
     158:	ff e0       	ldi	r31, 0x0F	; 15
     15a:	ef 2e       	mov	r14, r31
     15c:	ff 24       	eor	r15, r15
     15e:	f0 2d       	mov	r31, r0
     160:	ec 0e       	add	r14, r28
     162:	fd 1e       	adc	r15, r29
     164:	05 e4       	ldi	r16, 0x45	; 69
     166:	11 e0       	ldi	r17, 0x01	; 1
     168:	0f 2e       	mov	r0, r31
     16a:	f0 e0       	ldi	r31, 0x00	; 0
     16c:	cf 2e       	mov	r12, r31
     16e:	f1 e0       	ldi	r31, 0x01	; 1
     170:	df 2e       	mov	r13, r31
     172:	f0 2d       	mov	r31, r0
     174:	69 91       	ld	r22, Y+
     176:	c8 01       	movw	r24, r16
     178:	70 e0       	ldi	r23, 0x00	; 0
     17a:	0e 94 91 06 	call	0xd22	; 0xd22 <_ZN5Usart5writeEi>
     17e:	c8 01       	movw	r24, r16
     180:	b6 01       	movw	r22, r12
     182:	0e 94 04 06 	call	0xc08	; 0xc08 <_ZN5Usart5writeEPKc>
     186:	ce 15       	cp	r28, r14
     188:	df 05       	cpc	r29, r15
     18a:	a1 f7       	brne	.-24     	; 0x174 <_Z8I2C_recvv+0xa0>
     18c:	29 c0       	rjmp	.+82     	; 0x1e0 <_Z8I2C_recvv+0x10c>
     18e:	10 92 3a 01 	sts	0x013A, r1
     192:	c5 e4       	ldi	r28, 0x45	; 69
     194:	d1 e0       	ldi	r29, 0x01	; 1
     196:	ce 01       	movw	r24, r28
     198:	62 e0       	ldi	r22, 0x02	; 2
     19a:	71 e0       	ldi	r23, 0x01	; 1
     19c:	0e 94 04 06 	call	0xc08	; 0xc08 <_ZN5Usart5writeEPKc>
     1a0:	ce 01       	movw	r24, r28
     1a2:	b8 01       	movw	r22, r16
     1a4:	0e 94 91 06 	call	0xd22	; 0xd22 <_ZN5Usart5writeEi>
     1a8:	ce 01       	movw	r24, r28
     1aa:	65 e1       	ldi	r22, 0x15	; 21
     1ac:	71 e0       	ldi	r23, 0x01	; 1
     1ae:	0e 94 04 06 	call	0xc08	; 0xc08 <_ZN5Usart5writeEPKc>
     1b2:	60 91 39 01 	lds	r22, 0x0139
     1b6:	ce 01       	movw	r24, r28
     1b8:	70 e0       	ldi	r23, 0x00	; 0
     1ba:	0e 94 91 06 	call	0xd22	; 0xd22 <_ZN5Usart5writeEi>
     1be:	00 e0       	ldi	r16, 0x00	; 0
     1c0:	11 e0       	ldi	r17, 0x01	; 1
     1c2:	ce 01       	movw	r24, r28
     1c4:	b8 01       	movw	r22, r16
     1c6:	0e 94 04 06 	call	0xc08	; 0xc08 <_ZN5Usart5writeEPKc>
     1ca:	60 91 3c 01 	lds	r22, 0x013C
     1ce:	70 91 3d 01 	lds	r23, 0x013D
     1d2:	ce 01       	movw	r24, r28
     1d4:	0e 94 91 06 	call	0xd22	; 0xd22 <_ZN5Usart5writeEi>
     1d8:	ce 01       	movw	r24, r28
     1da:	b8 01       	movw	r22, r16
     1dc:	0e 94 04 06 	call	0xc08	; 0xc08 <_ZN5Usart5writeEPKc>
     1e0:	df 91       	pop	r29
     1e2:	cf 91       	pop	r28
     1e4:	1f 91       	pop	r17
     1e6:	0f 91       	pop	r16
     1e8:	ff 90       	pop	r15
     1ea:	ef 90       	pop	r14
     1ec:	df 90       	pop	r13
     1ee:	cf 90       	pop	r12
     1f0:	08 95       	ret

000001f2 <__vector_24>:
     1f2:	1f 92       	push	r1
     1f4:	0f 92       	push	r0
     1f6:	0f b6       	in	r0, 0x3f	; 63
     1f8:	0f 92       	push	r0
     1fa:	11 24       	eor	r1, r1
     1fc:	2f 93       	push	r18
     1fe:	3f 93       	push	r19
     200:	4f 93       	push	r20
     202:	5f 93       	push	r21
     204:	6f 93       	push	r22
     206:	7f 93       	push	r23
     208:	8f 93       	push	r24
     20a:	9f 93       	push	r25
     20c:	af 93       	push	r26
     20e:	bf 93       	push	r27
     210:	ef 93       	push	r30
     212:	ff 93       	push	r31
     214:	0e 94 88 01 	call	0x310	; 0x310 <_Z14Slave_CallBackv>
     218:	ff 91       	pop	r31
     21a:	ef 91       	pop	r30
     21c:	bf 91       	pop	r27
     21e:	af 91       	pop	r26
     220:	9f 91       	pop	r25
     222:	8f 91       	pop	r24
     224:	7f 91       	pop	r23
     226:	6f 91       	pop	r22
     228:	5f 91       	pop	r21
     22a:	4f 91       	pop	r20
     22c:	3f 91       	pop	r19
     22e:	2f 91       	pop	r18
     230:	0f 90       	pop	r0
     232:	0f be       	out	0x3f, r0	; 63
     234:	0f 90       	pop	r0
     236:	1f 90       	pop	r1
     238:	18 95       	reti

0000023a <_Z5setupv>:
     23a:	0f 93       	push	r16
     23c:	1f 93       	push	r17
     23e:	cf 93       	push	r28
     240:	df 93       	push	r29
     242:	cf e3       	ldi	r28, 0x3F	; 63
     244:	d1 e0       	ldi	r29, 0x01	; 1
     246:	ce 01       	movw	r24, r28
     248:	6a e6       	ldi	r22, 0x6A	; 106
     24a:	70 e0       	ldi	r23, 0x00	; 0
     24c:	0e 94 e6 01 	call	0x3cc	; 0x3cc <_ZN8I2CSLAVE14attach_ReceiveEPFvvE>
     250:	ce 01       	movw	r24, r28
     252:	62 e6       	ldi	r22, 0x62	; 98
     254:	70 e0       	ldi	r23, 0x00	; 0
     256:	0e 94 ea 01 	call	0x3d4	; 0x3d4 <_ZN8I2CSLAVE14attach_RequestEPFvvE>
     25a:	ce 01       	movw	r24, r28
     25c:	68 e0       	ldi	r22, 0x08	; 8
     25e:	0e 94 dd 01 	call	0x3ba	; 0x3ba <_ZN8I2CSLAVE4OpenEh>
     262:	85 e4       	ldi	r24, 0x45	; 69
     264:	91 e0       	ldi	r25, 0x01	; 1
     266:	40 e0       	ldi	r20, 0x00	; 0
     268:	51 ee       	ldi	r21, 0xE1	; 225
     26a:	60 e0       	ldi	r22, 0x00	; 0
     26c:	70 e0       	ldi	r23, 0x00	; 0
     26e:	20 e4       	ldi	r18, 0x40	; 64
     270:	30 e0       	ldi	r19, 0x00	; 0
     272:	01 e0       	ldi	r16, 0x01	; 1
     274:	10 e0       	ldi	r17, 0x00	; 0
     276:	0e 94 93 04 	call	0x926	; 0x926 <_ZN5Usart5beginEmj11UsartModeEL>
     27a:	78 94       	sei
     27c:	df 91       	pop	r29
     27e:	cf 91       	pop	r28
     280:	1f 91       	pop	r17
     282:	0f 91       	pop	r16
     284:	08 95       	ret

00000286 <_Z4loopv>:
     286:	83 b7       	in	r24, 0x33	; 51
     288:	81 7f       	andi	r24, 0xF1	; 241
     28a:	8c 60       	ori	r24, 0x0C	; 12
     28c:	83 bf       	out	0x33, r24	; 51
     28e:	78 94       	sei
     290:	83 b7       	in	r24, 0x33	; 51
     292:	81 60       	ori	r24, 0x01	; 1
     294:	83 bf       	out	0x33, r24	; 51
     296:	88 95       	sleep
     298:	83 b7       	in	r24, 0x33	; 51
     29a:	8e 7f       	andi	r24, 0xFE	; 254
     29c:	83 bf       	out	0x33, r24	; 51
     29e:	8f e7       	ldi	r24, 0x7F	; 127
     2a0:	9a e1       	ldi	r25, 0x1A	; 26
     2a2:	a6 e0       	ldi	r26, 0x06	; 6
     2a4:	81 50       	subi	r24, 0x01	; 1
     2a6:	90 40       	sbci	r25, 0x00	; 0
     2a8:	a0 40       	sbci	r26, 0x00	; 0
     2aa:	e1 f7       	brne	.-8      	; 0x2a4 <_Z4loopv+0x1e>
     2ac:	00 c0       	rjmp	.+0      	; 0x2ae <_Z4loopv+0x28>
     2ae:	00 00       	nop
     2b0:	08 95       	ret

000002b2 <main>:
     2b2:	0e 94 1d 01 	call	0x23a	; 0x23a <_Z5setupv>
     2b6:	0e 94 43 01 	call	0x286	; 0x286 <_Z4loopv>
     2ba:	fd cf       	rjmp	.-6      	; 0x2b6 <main+0x4>

000002bc <_ZN8I2CSLAVED1Ev>:
     2bc:	2f e1       	ldi	r18, 0x1F	; 31
     2be:	31 e0       	ldi	r19, 0x01	; 1
     2c0:	fc 01       	movw	r30, r24
     2c2:	31 83       	std	Z+1, r19	; 0x01
     2c4:	20 83       	st	Z, r18
     2c6:	08 95       	ret

000002c8 <_Z41__static_initialization_and_destruction_0ii>:
     2c8:	81 30       	cpi	r24, 0x01	; 1
     2ca:	91 05       	cpc	r25, r1
     2cc:	59 f4       	brne	.+22     	; 0x2e4 <_Z41__static_initialization_and_destruction_0ii+0x1c>
     2ce:	8f ef       	ldi	r24, 0xFF	; 255
     2d0:	6f 3f       	cpi	r22, 0xFF	; 255
     2d2:	78 07       	cpc	r23, r24
     2d4:	89 f4       	brne	.+34     	; 0x2f8 <_Z41__static_initialization_and_destruction_0ii+0x30>
     2d6:	8f e1       	ldi	r24, 0x1F	; 31
     2d8:	91 e0       	ldi	r25, 0x01	; 1
     2da:	90 93 40 01 	sts	0x0140, r25
     2de:	80 93 3f 01 	sts	0x013F, r24
     2e2:	08 95       	ret
     2e4:	00 97       	sbiw	r24, 0x00	; 0
     2e6:	41 f4       	brne	.+16     	; 0x2f8 <_Z41__static_initialization_and_destruction_0ii+0x30>
     2e8:	8f ef       	ldi	r24, 0xFF	; 255
     2ea:	6f 3f       	cpi	r22, 0xFF	; 255
     2ec:	78 07       	cpc	r23, r24
     2ee:	21 f4       	brne	.+8      	; 0x2f8 <_Z41__static_initialization_and_destruction_0ii+0x30>
     2f0:	8f e3       	ldi	r24, 0x3F	; 63
     2f2:	91 e0       	ldi	r25, 0x01	; 1
     2f4:	0e 94 5e 01 	call	0x2bc	; 0x2bc <_ZN8I2CSLAVED1Ev>
     2f8:	08 95       	ret

000002fa <_ZN8I2CSLAVED0Ev>:
     2fa:	cf 93       	push	r28
     2fc:	df 93       	push	r29
     2fe:	ec 01       	movw	r28, r24
     300:	0e 94 5e 01 	call	0x2bc	; 0x2bc <_ZN8I2CSLAVED1Ev>
     304:	ce 01       	movw	r24, r28
     306:	0e 94 b7 07 	call	0xf6e	; 0xf6e <_ZdlPv>
     30a:	df 91       	pop	r29
     30c:	cf 91       	pop	r28
     30e:	08 95       	ret

00000310 <_Z14Slave_CallBackv>:
     310:	80 91 b9 00 	lds	r24, 0x00B9
     314:	90 e0       	ldi	r25, 0x00	; 0
     316:	88 7f       	andi	r24, 0xF8	; 248
     318:	90 70       	andi	r25, 0x00	; 0
     31a:	80 3a       	cpi	r24, 0xA0	; 160
     31c:	91 05       	cpc	r25, r1
     31e:	51 f1       	breq	.+84     	; 0x374 <_Z14Slave_CallBackv+0x64>
     320:	81 3a       	cpi	r24, 0xA1	; 161
     322:	91 05       	cpc	r25, r1
     324:	4c f4       	brge	.+18     	; 0x338 <_Z14Slave_CallBackv+0x28>
     326:	80 36       	cpi	r24, 0x60	; 96
     328:	91 05       	cpc	r25, r1
     32a:	b9 f0       	breq	.+46     	; 0x35a <_Z14Slave_CallBackv+0x4a>
     32c:	80 38       	cpi	r24, 0x80	; 128
     32e:	91 05       	cpc	r25, r1
     330:	c1 f0       	breq	.+48     	; 0x362 <_Z14Slave_CallBackv+0x52>
     332:	00 97       	sbiw	r24, 0x00	; 0
     334:	c9 f1       	breq	.+114    	; 0x3a8 <_Z14Slave_CallBackv+0x98>
     336:	08 95       	ret
     338:	80 3b       	cpi	r24, 0xB0	; 176
     33a:	91 05       	cpc	r25, r1
     33c:	41 f1       	breq	.+80     	; 0x38e <_Z14Slave_CallBackv+0x7e>
     33e:	81 3b       	cpi	r24, 0xB1	; 177
     340:	91 05       	cpc	r25, r1
     342:	24 f4       	brge	.+8      	; 0x34c <_Z14Slave_CallBackv+0x3c>
     344:	88 3a       	cpi	r24, 0xA8	; 168
     346:	91 05       	cpc	r25, r1
     348:	b9 f5       	brne	.+110    	; 0x3b8 <_Z14Slave_CallBackv+0xa8>
     34a:	18 c0       	rjmp	.+48     	; 0x37c <_Z14Slave_CallBackv+0x6c>
     34c:	88 3b       	cpi	r24, 0xB8	; 184
     34e:	91 05       	cpc	r25, r1
     350:	f1 f0       	breq	.+60     	; 0x38e <_Z14Slave_CallBackv+0x7e>
     352:	80 3c       	cpi	r24, 0xC0	; 192
     354:	91 05       	cpc	r25, r1
     356:	81 f5       	brne	.+96     	; 0x3b8 <_Z14Slave_CallBackv+0xa8>
     358:	23 c0       	rjmp	.+70     	; 0x3a0 <_Z14Slave_CallBackv+0x90>
     35a:	85 ec       	ldi	r24, 0xC5	; 197
     35c:	80 93 bc 00 	sts	0x00BC, r24
     360:	08 95       	ret
     362:	e0 91 41 01 	lds	r30, 0x0141
     366:	f0 91 42 01 	lds	r31, 0x0142
     36a:	09 95       	icall
     36c:	85 ec       	ldi	r24, 0xC5	; 197
     36e:	80 93 bc 00 	sts	0x00BC, r24
     372:	08 95       	ret
     374:	85 ec       	ldi	r24, 0xC5	; 197
     376:	80 93 bc 00 	sts	0x00BC, r24
     37a:	08 95       	ret
     37c:	e0 91 43 01 	lds	r30, 0x0143
     380:	f0 91 44 01 	lds	r31, 0x0144
     384:	09 95       	icall
     386:	85 ec       	ldi	r24, 0xC5	; 197
     388:	80 93 bc 00 	sts	0x00BC, r24
     38c:	08 95       	ret
     38e:	e0 91 43 01 	lds	r30, 0x0143
     392:	f0 91 44 01 	lds	r31, 0x0144
     396:	09 95       	icall
     398:	85 ec       	ldi	r24, 0xC5	; 197
     39a:	80 93 bc 00 	sts	0x00BC, r24
     39e:	08 95       	ret
     3a0:	85 ec       	ldi	r24, 0xC5	; 197
     3a2:	80 93 bc 00 	sts	0x00BC, r24
     3a6:	08 95       	ret
     3a8:	ec eb       	ldi	r30, 0xBC	; 188
     3aa:	f0 e0       	ldi	r31, 0x00	; 0
     3ac:	80 e1       	ldi	r24, 0x10	; 16
     3ae:	80 83       	st	Z, r24
     3b0:	00 00       	nop
     3b2:	00 00       	nop
     3b4:	85 ec       	ldi	r24, 0xC5	; 197
     3b6:	80 83       	st	Z, r24
     3b8:	08 95       	ret

000003ba <_ZN8I2CSLAVE4OpenEh>:
     3ba:	f8 94       	cli
     3bc:	66 0f       	add	r22, r22
     3be:	60 93 ba 00 	sts	0x00BA, r22
     3c2:	85 ec       	ldi	r24, 0xC5	; 197
     3c4:	80 93 bc 00 	sts	0x00BC, r24
     3c8:	78 94       	sei
     3ca:	08 95       	ret

000003cc <_ZN8I2CSLAVE14attach_ReceiveEPFvvE>:
     3cc:	fc 01       	movw	r30, r24
     3ce:	73 83       	std	Z+3, r23	; 0x03
     3d0:	62 83       	std	Z+2, r22	; 0x02
     3d2:	08 95       	ret

000003d4 <_ZN8I2CSLAVE14attach_RequestEPFvvE>:
     3d4:	fc 01       	movw	r30, r24
     3d6:	75 83       	std	Z+5, r23	; 0x05
     3d8:	64 83       	std	Z+4, r22	; 0x04
     3da:	08 95       	ret

000003dc <_ZN8I2CSLAVE8I2C_stopEv>:
     3dc:	f8 94       	cli
     3de:	10 92 bc 00 	sts	0x00BC, r1
     3e2:	10 92 ba 00 	sts	0x00BA, r1
     3e6:	78 94       	sei
     3e8:	08 95       	ret

000003ea <_GLOBAL__I_I2C_Slave>:
     3ea:	81 e0       	ldi	r24, 0x01	; 1
     3ec:	90 e0       	ldi	r25, 0x00	; 0
     3ee:	6f ef       	ldi	r22, 0xFF	; 255
     3f0:	7f ef       	ldi	r23, 0xFF	; 255
     3f2:	0e 94 64 01 	call	0x2c8	; 0x2c8 <_Z41__static_initialization_and_destruction_0ii>
     3f6:	08 95       	ret

000003f8 <_GLOBAL__D_I2C_Slave>:
     3f8:	80 e0       	ldi	r24, 0x00	; 0
     3fa:	90 e0       	ldi	r25, 0x00	; 0
     3fc:	6f ef       	ldi	r22, 0xFF	; 255
     3fe:	7f ef       	ldi	r23, 0xFF	; 255
     400:	0e 94 64 01 	call	0x2c8	; 0x2c8 <_Z41__static_initialization_and_destruction_0ii>
     404:	08 95       	ret

00000406 <_ZN5UsartD1Ev>:
     406:	fc 01       	movw	r30, r24
     408:	80 81       	ld	r24, Z
     40a:	91 81       	ldd	r25, Z+1	; 0x01
     40c:	0e 94 b7 07 	call	0xf6e	; 0xf6e <_ZdlPv>
     410:	08 95       	ret

00000412 <_ZN5Usart14setFrameLengthE18UsartFrameLengthEL>:
     412:	fc 01       	movw	r30, r24
     414:	67 30       	cpi	r22, 0x07	; 7
     416:	71 05       	cpc	r23, r1
     418:	09 f4       	brne	.+2      	; 0x41c <_ZN5Usart14setFrameLengthE18UsartFrameLengthEL+0xa>
     41a:	60 c0       	rjmp	.+192    	; 0x4dc <_ZN5Usart14setFrameLengthE18UsartFrameLengthEL+0xca>
     41c:	68 30       	cpi	r22, 0x08	; 8
     41e:	71 05       	cpc	r23, r1
     420:	44 f4       	brge	.+16     	; 0x432 <_ZN5Usart14setFrameLengthE18UsartFrameLengthEL+0x20>
     422:	65 30       	cpi	r22, 0x05	; 5
     424:	71 05       	cpc	r23, r1
     426:	71 f0       	breq	.+28     	; 0x444 <_ZN5Usart14setFrameLengthE18UsartFrameLengthEL+0x32>
     428:	66 30       	cpi	r22, 0x06	; 6
     42a:	71 05       	cpc	r23, r1
     42c:	09 f0       	breq	.+2      	; 0x430 <_ZN5Usart14setFrameLengthE18UsartFrameLengthEL+0x1e>
     42e:	c2 c0       	rjmp	.+388    	; 0x5b4 <_ZN5Usart14setFrameLengthE18UsartFrameLengthEL+0x1a2>
     430:	2d c0       	rjmp	.+90     	; 0x48c <_ZN5Usart14setFrameLengthE18UsartFrameLengthEL+0x7a>
     432:	68 30       	cpi	r22, 0x08	; 8
     434:	71 05       	cpc	r23, r1
     436:	09 f4       	brne	.+2      	; 0x43a <_ZN5Usart14setFrameLengthE18UsartFrameLengthEL+0x28>
     438:	79 c0       	rjmp	.+242    	; 0x52c <_ZN5Usart14setFrameLengthE18UsartFrameLengthEL+0x11a>
     43a:	69 30       	cpi	r22, 0x09	; 9
     43c:	71 05       	cpc	r23, r1
     43e:	09 f0       	breq	.+2      	; 0x442 <_ZN5Usart14setFrameLengthE18UsartFrameLengthEL+0x30>
     440:	b9 c0       	rjmp	.+370    	; 0x5b4 <_ZN5Usart14setFrameLengthE18UsartFrameLengthEL+0x1a2>
     442:	97 c0       	rjmp	.+302    	; 0x572 <_ZN5Usart14setFrameLengthE18UsartFrameLengthEL+0x160>
     444:	a3 8d       	ldd	r26, Z+27	; 0x1b
     446:	b4 8d       	ldd	r27, Z+28	; 0x1c
     448:	6c 91       	ld	r22, X
     44a:	81 e0       	ldi	r24, 0x01	; 1
     44c:	90 e0       	ldi	r25, 0x00	; 0
     44e:	ac 01       	movw	r20, r24
     450:	02 a4       	ldd	r0, Z+42	; 0x2a
     452:	02 c0       	rjmp	.+4      	; 0x458 <_ZN5Usart14setFrameLengthE18UsartFrameLengthEL+0x46>
     454:	44 0f       	add	r20, r20
     456:	55 1f       	adc	r21, r21
     458:	0a 94       	dec	r0
     45a:	e2 f7       	brpl	.-8      	; 0x454 <_ZN5Usart14setFrameLengthE18UsartFrameLengthEL+0x42>
     45c:	9c 01       	movw	r18, r24
     45e:	01 a4       	ldd	r0, Z+41	; 0x29
     460:	02 c0       	rjmp	.+4      	; 0x466 <_ZN5Usart14setFrameLengthE18UsartFrameLengthEL+0x54>
     462:	22 0f       	add	r18, r18
     464:	33 1f       	adc	r19, r19
     466:	0a 94       	dec	r0
     468:	e2 f7       	brpl	.-8      	; 0x462 <_ZN5Usart14setFrameLengthE18UsartFrameLengthEL+0x50>
     46a:	24 23       	and	r18, r20
     46c:	20 95       	com	r18
     46e:	26 23       	and	r18, r22
     470:	2c 93       	st	X, r18
     472:	a1 8d       	ldd	r26, Z+25	; 0x19
     474:	b2 8d       	ldd	r27, Z+26	; 0x1a
     476:	2c 91       	ld	r18, X
     478:	03 a4       	ldd	r0, Z+43	; 0x2b
     47a:	02 c0       	rjmp	.+4      	; 0x480 <_ZN5Usart14setFrameLengthE18UsartFrameLengthEL+0x6e>
     47c:	88 0f       	add	r24, r24
     47e:	99 1f       	adc	r25, r25
     480:	0a 94       	dec	r0
     482:	e2 f7       	brpl	.-8      	; 0x47c <_ZN5Usart14setFrameLengthE18UsartFrameLengthEL+0x6a>
     484:	80 95       	com	r24
     486:	82 23       	and	r24, r18
     488:	8c 93       	st	X, r24
     48a:	08 95       	ret
     48c:	a3 8d       	ldd	r26, Z+27	; 0x1b
     48e:	b4 8d       	ldd	r27, Z+28	; 0x1c
     490:	4c 91       	ld	r20, X
     492:	81 e0       	ldi	r24, 0x01	; 1
     494:	90 e0       	ldi	r25, 0x00	; 0
     496:	9c 01       	movw	r18, r24
     498:	01 a4       	ldd	r0, Z+41	; 0x29
     49a:	02 c0       	rjmp	.+4      	; 0x4a0 <_ZN5Usart14setFrameLengthE18UsartFrameLengthEL+0x8e>
     49c:	22 0f       	add	r18, r18
     49e:	33 1f       	adc	r19, r19
     4a0:	0a 94       	dec	r0
     4a2:	e2 f7       	brpl	.-8      	; 0x49c <_ZN5Usart14setFrameLengthE18UsartFrameLengthEL+0x8a>
     4a4:	24 2b       	or	r18, r20
     4a6:	2c 93       	st	X, r18
     4a8:	a3 8d       	ldd	r26, Z+27	; 0x1b
     4aa:	b4 8d       	ldd	r27, Z+28	; 0x1c
     4ac:	4c 91       	ld	r20, X
     4ae:	9c 01       	movw	r18, r24
     4b0:	02 a4       	ldd	r0, Z+42	; 0x2a
     4b2:	02 c0       	rjmp	.+4      	; 0x4b8 <_ZN5Usart14setFrameLengthE18UsartFrameLengthEL+0xa6>
     4b4:	22 0f       	add	r18, r18
     4b6:	33 1f       	adc	r19, r19
     4b8:	0a 94       	dec	r0
     4ba:	e2 f7       	brpl	.-8      	; 0x4b4 <_ZN5Usart14setFrameLengthE18UsartFrameLengthEL+0xa2>
     4bc:	20 95       	com	r18
     4be:	24 23       	and	r18, r20
     4c0:	2c 93       	st	X, r18
     4c2:	a1 8d       	ldd	r26, Z+25	; 0x19
     4c4:	b2 8d       	ldd	r27, Z+26	; 0x1a
     4c6:	2c 91       	ld	r18, X
     4c8:	03 a4       	ldd	r0, Z+43	; 0x2b
     4ca:	02 c0       	rjmp	.+4      	; 0x4d0 <_ZN5Usart14setFrameLengthE18UsartFrameLengthEL+0xbe>
     4cc:	88 0f       	add	r24, r24
     4ce:	99 1f       	adc	r25, r25
     4d0:	0a 94       	dec	r0
     4d2:	e2 f7       	brpl	.-8      	; 0x4cc <_ZN5Usart14setFrameLengthE18UsartFrameLengthEL+0xba>
     4d4:	80 95       	com	r24
     4d6:	82 23       	and	r24, r18
     4d8:	8c 93       	st	X, r24
     4da:	08 95       	ret
     4dc:	a3 8d       	ldd	r26, Z+27	; 0x1b
     4de:	b4 8d       	ldd	r27, Z+28	; 0x1c
     4e0:	4c 91       	ld	r20, X
     4e2:	81 e0       	ldi	r24, 0x01	; 1
     4e4:	90 e0       	ldi	r25, 0x00	; 0
     4e6:	9c 01       	movw	r18, r24
     4e8:	01 a4       	ldd	r0, Z+41	; 0x29
     4ea:	02 c0       	rjmp	.+4      	; 0x4f0 <_ZN5Usart14setFrameLengthE18UsartFrameLengthEL+0xde>
     4ec:	22 0f       	add	r18, r18
     4ee:	33 1f       	adc	r19, r19
     4f0:	0a 94       	dec	r0
     4f2:	e2 f7       	brpl	.-8      	; 0x4ec <_ZN5Usart14setFrameLengthE18UsartFrameLengthEL+0xda>
     4f4:	20 95       	com	r18
     4f6:	24 23       	and	r18, r20
     4f8:	2c 93       	st	X, r18
     4fa:	a3 8d       	ldd	r26, Z+27	; 0x1b
     4fc:	b4 8d       	ldd	r27, Z+28	; 0x1c
     4fe:	4c 91       	ld	r20, X
     500:	9c 01       	movw	r18, r24
     502:	02 a4       	ldd	r0, Z+42	; 0x2a
     504:	02 c0       	rjmp	.+4      	; 0x50a <_ZN5Usart14setFrameLengthE18UsartFrameLengthEL+0xf8>
     506:	22 0f       	add	r18, r18
     508:	33 1f       	adc	r19, r19
     50a:	0a 94       	dec	r0
     50c:	e2 f7       	brpl	.-8      	; 0x506 <_ZN5Usart14setFrameLengthE18UsartFrameLengthEL+0xf4>
     50e:	24 2b       	or	r18, r20
     510:	2c 93       	st	X, r18
     512:	a1 8d       	ldd	r26, Z+25	; 0x19
     514:	b2 8d       	ldd	r27, Z+26	; 0x1a
     516:	2c 91       	ld	r18, X
     518:	03 a4       	ldd	r0, Z+43	; 0x2b
     51a:	02 c0       	rjmp	.+4      	; 0x520 <_ZN5Usart14setFrameLengthE18UsartFrameLengthEL+0x10e>
     51c:	88 0f       	add	r24, r24
     51e:	99 1f       	adc	r25, r25
     520:	0a 94       	dec	r0
     522:	e2 f7       	brpl	.-8      	; 0x51c <_ZN5Usart14setFrameLengthE18UsartFrameLengthEL+0x10a>
     524:	80 95       	com	r24
     526:	82 23       	and	r24, r18
     528:	8c 93       	st	X, r24
     52a:	08 95       	ret
     52c:	a3 8d       	ldd	r26, Z+27	; 0x1b
     52e:	b4 8d       	ldd	r27, Z+28	; 0x1c
     530:	6c 91       	ld	r22, X
     532:	81 e0       	ldi	r24, 0x01	; 1
     534:	90 e0       	ldi	r25, 0x00	; 0
     536:	ac 01       	movw	r20, r24
     538:	01 a4       	ldd	r0, Z+41	; 0x29
     53a:	02 c0       	rjmp	.+4      	; 0x540 <_ZN5Usart14setFrameLengthE18UsartFrameLengthEL+0x12e>
     53c:	44 0f       	add	r20, r20
     53e:	55 1f       	adc	r21, r21
     540:	0a 94       	dec	r0
     542:	e2 f7       	brpl	.-8      	; 0x53c <_ZN5Usart14setFrameLengthE18UsartFrameLengthEL+0x12a>
     544:	9c 01       	movw	r18, r24
     546:	02 a4       	ldd	r0, Z+42	; 0x2a
     548:	02 c0       	rjmp	.+4      	; 0x54e <_ZN5Usart14setFrameLengthE18UsartFrameLengthEL+0x13c>
     54a:	22 0f       	add	r18, r18
     54c:	33 1f       	adc	r19, r19
     54e:	0a 94       	dec	r0
     550:	e2 f7       	brpl	.-8      	; 0x54a <_ZN5Usart14setFrameLengthE18UsartFrameLengthEL+0x138>
     552:	24 2b       	or	r18, r20
     554:	26 2b       	or	r18, r22
     556:	2c 93       	st	X, r18
     558:	a1 8d       	ldd	r26, Z+25	; 0x19
     55a:	b2 8d       	ldd	r27, Z+26	; 0x1a
     55c:	2c 91       	ld	r18, X
     55e:	03 a4       	ldd	r0, Z+43	; 0x2b
     560:	02 c0       	rjmp	.+4      	; 0x566 <_ZN5Usart14setFrameLengthE18UsartFrameLengthEL+0x154>
     562:	88 0f       	add	r24, r24
     564:	99 1f       	adc	r25, r25
     566:	0a 94       	dec	r0
     568:	e2 f7       	brpl	.-8      	; 0x562 <_ZN5Usart14setFrameLengthE18UsartFrameLengthEL+0x150>
     56a:	80 95       	com	r24
     56c:	82 23       	and	r24, r18
     56e:	8c 93       	st	X, r24
     570:	08 95       	ret
     572:	a3 8d       	ldd	r26, Z+27	; 0x1b
     574:	b4 8d       	ldd	r27, Z+28	; 0x1c
     576:	6c 91       	ld	r22, X
     578:	81 e0       	ldi	r24, 0x01	; 1
     57a:	90 e0       	ldi	r25, 0x00	; 0
     57c:	ac 01       	movw	r20, r24
     57e:	01 a4       	ldd	r0, Z+41	; 0x29
     580:	02 c0       	rjmp	.+4      	; 0x586 <_ZN5Usart14setFrameLengthE18UsartFrameLengthEL+0x174>
     582:	44 0f       	add	r20, r20
     584:	55 1f       	adc	r21, r21
     586:	0a 94       	dec	r0
     588:	e2 f7       	brpl	.-8      	; 0x582 <_ZN5Usart14setFrameLengthE18UsartFrameLengthEL+0x170>
     58a:	9c 01       	movw	r18, r24
     58c:	02 a4       	ldd	r0, Z+42	; 0x2a
     58e:	02 c0       	rjmp	.+4      	; 0x594 <_ZN5Usart14setFrameLengthE18UsartFrameLengthEL+0x182>
     590:	22 0f       	add	r18, r18
     592:	33 1f       	adc	r19, r19
     594:	0a 94       	dec	r0
     596:	e2 f7       	brpl	.-8      	; 0x590 <_ZN5Usart14setFrameLengthE18UsartFrameLengthEL+0x17e>
     598:	24 2b       	or	r18, r20
     59a:	26 2b       	or	r18, r22
     59c:	2c 93       	st	X, r18
     59e:	a1 8d       	ldd	r26, Z+25	; 0x19
     5a0:	b2 8d       	ldd	r27, Z+26	; 0x1a
     5a2:	2c 91       	ld	r18, X
     5a4:	03 a4       	ldd	r0, Z+43	; 0x2b
     5a6:	02 c0       	rjmp	.+4      	; 0x5ac <_ZN5Usart14setFrameLengthE18UsartFrameLengthEL+0x19a>
     5a8:	88 0f       	add	r24, r24
     5aa:	99 1f       	adc	r25, r25
     5ac:	0a 94       	dec	r0
     5ae:	e2 f7       	brpl	.-8      	; 0x5a8 <_ZN5Usart14setFrameLengthE18UsartFrameLengthEL+0x196>
     5b0:	82 2b       	or	r24, r18
     5b2:	8c 93       	st	X, r24
     5b4:	08 95       	ret

000005b6 <_ZN5Usart14getFrameLengthEv>:
     5b6:	fc 01       	movw	r30, r24
     5b8:	a3 8d       	ldd	r26, Z+27	; 0x1b
     5ba:	b4 8d       	ldd	r27, Z+28	; 0x1c
     5bc:	8c 91       	ld	r24, X
     5be:	90 e0       	ldi	r25, 0x00	; 0
     5c0:	01 a4       	ldd	r0, Z+41	; 0x29
     5c2:	02 c0       	rjmp	.+4      	; 0x5c8 <_ZN5Usart14getFrameLengthEv+0x12>
     5c4:	95 95       	asr	r25
     5c6:	87 95       	ror	r24
     5c8:	0a 94       	dec	r0
     5ca:	e2 f7       	brpl	.-8      	; 0x5c4 <_ZN5Usart14getFrameLengthEv+0xe>
     5cc:	38 2f       	mov	r19, r24
     5ce:	31 70       	andi	r19, 0x01	; 1
     5d0:	9c 91       	ld	r25, X
     5d2:	89 2f       	mov	r24, r25
     5d4:	90 e0       	ldi	r25, 0x00	; 0
     5d6:	02 a4       	ldd	r0, Z+42	; 0x2a
     5d8:	02 c0       	rjmp	.+4      	; 0x5de <_ZN5Usart14getFrameLengthEv+0x28>
     5da:	95 95       	asr	r25
     5dc:	87 95       	ror	r24
     5de:	0a 94       	dec	r0
     5e0:	e2 f7       	brpl	.-8      	; 0x5da <_ZN5Usart14getFrameLengthEv+0x24>
     5e2:	28 2f       	mov	r18, r24
     5e4:	21 70       	andi	r18, 0x01	; 1
     5e6:	a1 8d       	ldd	r26, Z+25	; 0x19
     5e8:	b2 8d       	ldd	r27, Z+26	; 0x1a
     5ea:	9c 91       	ld	r25, X
     5ec:	89 2f       	mov	r24, r25
     5ee:	90 e0       	ldi	r25, 0x00	; 0
     5f0:	03 a4       	ldd	r0, Z+43	; 0x2b
     5f2:	02 c0       	rjmp	.+4      	; 0x5f8 <_ZN5Usart14getFrameLengthEv+0x42>
     5f4:	95 95       	asr	r25
     5f6:	87 95       	ror	r24
     5f8:	0a 94       	dec	r0
     5fa:	e2 f7       	brpl	.-8      	; 0x5f4 <_ZN5Usart14getFrameLengthEv+0x3e>
     5fc:	48 2f       	mov	r20, r24
     5fe:	41 70       	andi	r20, 0x01	; 1
     600:	80 fd       	sbrc	r24, 0
     602:	0e c0       	rjmp	.+28     	; 0x620 <_ZN5Usart14getFrameLengthEv+0x6a>
     604:	22 23       	and	r18, r18
     606:	29 f4       	brne	.+10     	; 0x612 <_ZN5Usart14getFrameLengthEv+0x5c>
     608:	33 23       	and	r19, r19
     60a:	89 f0       	breq	.+34     	; 0x62e <_ZN5Usart14getFrameLengthEv+0x78>
     60c:	31 30       	cpi	r19, 0x01	; 1
     60e:	41 f4       	brne	.+16     	; 0x620 <_ZN5Usart14getFrameLengthEv+0x6a>
     610:	11 c0       	rjmp	.+34     	; 0x634 <_ZN5Usart14getFrameLengthEv+0x7e>
     612:	21 30       	cpi	r18, 0x01	; 1
     614:	29 f4       	brne	.+10     	; 0x620 <_ZN5Usart14getFrameLengthEv+0x6a>
     616:	33 23       	and	r19, r19
     618:	81 f0       	breq	.+32     	; 0x63a <_ZN5Usart14getFrameLengthEv+0x84>
     61a:	31 30       	cpi	r19, 0x01	; 1
     61c:	39 f4       	brne	.+14     	; 0x62c <_ZN5Usart14getFrameLengthEv+0x76>
     61e:	10 c0       	rjmp	.+32     	; 0x640 <_ZN5Usart14getFrameLengthEv+0x8a>
     620:	41 30       	cpi	r20, 0x01	; 1
     622:	21 f4       	brne	.+8      	; 0x62c <_ZN5Usart14getFrameLengthEv+0x76>
     624:	21 30       	cpi	r18, 0x01	; 1
     626:	11 f4       	brne	.+4      	; 0x62c <_ZN5Usart14getFrameLengthEv+0x76>
     628:	31 30       	cpi	r19, 0x01	; 1
     62a:	69 f0       	breq	.+26     	; 0x646 <_ZN5Usart14getFrameLengthEv+0x90>
     62c:	08 95       	ret
     62e:	25 e0       	ldi	r18, 0x05	; 5
     630:	30 e0       	ldi	r19, 0x00	; 0
     632:	0b c0       	rjmp	.+22     	; 0x64a <_ZN5Usart14getFrameLengthEv+0x94>
     634:	26 e0       	ldi	r18, 0x06	; 6
     636:	30 e0       	ldi	r19, 0x00	; 0
     638:	08 c0       	rjmp	.+16     	; 0x64a <_ZN5Usart14getFrameLengthEv+0x94>
     63a:	27 e0       	ldi	r18, 0x07	; 7
     63c:	30 e0       	ldi	r19, 0x00	; 0
     63e:	05 c0       	rjmp	.+10     	; 0x64a <_ZN5Usart14getFrameLengthEv+0x94>
     640:	28 e0       	ldi	r18, 0x08	; 8
     642:	30 e0       	ldi	r19, 0x00	; 0
     644:	02 c0       	rjmp	.+4      	; 0x64a <_ZN5Usart14getFrameLengthEv+0x94>
     646:	29 e0       	ldi	r18, 0x09	; 9
     648:	30 e0       	ldi	r19, 0x00	; 0
     64a:	82 2f       	mov	r24, r18
     64c:	93 2f       	mov	r25, r19
     64e:	08 95       	ret

00000650 <_ZN5Usart9setParityE13UsartParityEL>:
     650:	fc 01       	movw	r30, r24
     652:	62 30       	cpi	r22, 0x02	; 2
     654:	71 05       	cpc	r23, r1
     656:	f1 f0       	breq	.+60     	; 0x694 <_ZN5Usart9setParityE13UsartParityEL+0x44>
     658:	63 30       	cpi	r22, 0x03	; 3
     65a:	71 05       	cpc	r23, r1
     65c:	b4 f5       	brge	.+108    	; 0x6ca <_ZN5Usart9setParityE13UsartParityEL+0x7a>
     65e:	61 15       	cp	r22, r1
     660:	71 05       	cpc	r23, r1
     662:	09 f0       	breq	.+2      	; 0x666 <_ZN5Usart9setParityE13UsartParityEL+0x16>
     664:	47 c0       	rjmp	.+142    	; 0x6f4 <_ZN5Usart9setParityE13UsartParityEL+0xa4>
     666:	a3 8d       	ldd	r26, Z+27	; 0x1b
     668:	b4 8d       	ldd	r27, Z+28	; 0x1c
     66a:	4c 91       	ld	r20, X
     66c:	81 e0       	ldi	r24, 0x01	; 1
     66e:	90 e0       	ldi	r25, 0x00	; 0
     670:	9c 01       	movw	r18, r24
     672:	00 a4       	ldd	r0, Z+40	; 0x28
     674:	02 c0       	rjmp	.+4      	; 0x67a <_ZN5Usart9setParityE13UsartParityEL+0x2a>
     676:	22 0f       	add	r18, r18
     678:	33 1f       	adc	r19, r19
     67a:	0a 94       	dec	r0
     67c:	e2 f7       	brpl	.-8      	; 0x676 <_ZN5Usart9setParityE13UsartParityEL+0x26>
     67e:	07 a0       	ldd	r0, Z+39	; 0x27
     680:	02 c0       	rjmp	.+4      	; 0x686 <_ZN5Usart9setParityE13UsartParityEL+0x36>
     682:	88 0f       	add	r24, r24
     684:	99 1f       	adc	r25, r25
     686:	0a 94       	dec	r0
     688:	e2 f7       	brpl	.-8      	; 0x682 <_ZN5Usart9setParityE13UsartParityEL+0x32>
     68a:	82 23       	and	r24, r18
     68c:	80 95       	com	r24
     68e:	84 23       	and	r24, r20
     690:	8c 93       	st	X, r24
     692:	08 95       	ret
     694:	a3 8d       	ldd	r26, Z+27	; 0x1b
     696:	b4 8d       	ldd	r27, Z+28	; 0x1c
     698:	4c 91       	ld	r20, X
     69a:	81 e0       	ldi	r24, 0x01	; 1
     69c:	90 e0       	ldi	r25, 0x00	; 0
     69e:	9c 01       	movw	r18, r24
     6a0:	07 a0       	ldd	r0, Z+39	; 0x27
     6a2:	02 c0       	rjmp	.+4      	; 0x6a8 <_ZN5Usart9setParityE13UsartParityEL+0x58>
     6a4:	22 0f       	add	r18, r18
     6a6:	33 1f       	adc	r19, r19
     6a8:	0a 94       	dec	r0
     6aa:	e2 f7       	brpl	.-8      	; 0x6a4 <_ZN5Usart9setParityE13UsartParityEL+0x54>
     6ac:	20 95       	com	r18
     6ae:	24 23       	and	r18, r20
     6b0:	2c 93       	st	X, r18
     6b2:	a3 8d       	ldd	r26, Z+27	; 0x1b
     6b4:	b4 8d       	ldd	r27, Z+28	; 0x1c
     6b6:	2c 91       	ld	r18, X
     6b8:	00 a4       	ldd	r0, Z+40	; 0x28
     6ba:	02 c0       	rjmp	.+4      	; 0x6c0 <_ZN5Usart9setParityE13UsartParityEL+0x70>
     6bc:	88 0f       	add	r24, r24
     6be:	99 1f       	adc	r25, r25
     6c0:	0a 94       	dec	r0
     6c2:	e2 f7       	brpl	.-8      	; 0x6bc <_ZN5Usart9setParityE13UsartParityEL+0x6c>
     6c4:	82 2b       	or	r24, r18
     6c6:	8c 93       	st	X, r24
     6c8:	08 95       	ret
     6ca:	a3 8d       	ldd	r26, Z+27	; 0x1b
     6cc:	b4 8d       	ldd	r27, Z+28	; 0x1c
     6ce:	4c 91       	ld	r20, X
     6d0:	81 e0       	ldi	r24, 0x01	; 1
     6d2:	90 e0       	ldi	r25, 0x00	; 0
     6d4:	9c 01       	movw	r18, r24
     6d6:	07 a0       	ldd	r0, Z+39	; 0x27
     6d8:	02 c0       	rjmp	.+4      	; 0x6de <_ZN5Usart9setParityE13UsartParityEL+0x8e>
     6da:	22 0f       	add	r18, r18
     6dc:	33 1f       	adc	r19, r19
     6de:	0a 94       	dec	r0
     6e0:	e2 f7       	brpl	.-8      	; 0x6da <_ZN5Usart9setParityE13UsartParityEL+0x8a>
     6e2:	00 a4       	ldd	r0, Z+40	; 0x28
     6e4:	02 c0       	rjmp	.+4      	; 0x6ea <_ZN5Usart9setParityE13UsartParityEL+0x9a>
     6e6:	88 0f       	add	r24, r24
     6e8:	99 1f       	adc	r25, r25
     6ea:	0a 94       	dec	r0
     6ec:	e2 f7       	brpl	.-8      	; 0x6e6 <_ZN5Usart9setParityE13UsartParityEL+0x96>
     6ee:	82 2b       	or	r24, r18
     6f0:	84 2b       	or	r24, r20
     6f2:	8c 93       	st	X, r24
     6f4:	08 95       	ret

000006f6 <_ZN5Usart9getParityEv>:
     6f6:	fc 01       	movw	r30, r24
     6f8:	a3 8d       	ldd	r26, Z+27	; 0x1b
     6fa:	b4 8d       	ldd	r27, Z+28	; 0x1c
     6fc:	8c 91       	ld	r24, X
     6fe:	90 e0       	ldi	r25, 0x00	; 0
     700:	07 a0       	ldd	r0, Z+39	; 0x27
     702:	02 c0       	rjmp	.+4      	; 0x708 <_ZN5Usart9getParityEv+0x12>
     704:	95 95       	asr	r25
     706:	87 95       	ror	r24
     708:	0a 94       	dec	r0
     70a:	e2 f7       	brpl	.-8      	; 0x704 <_ZN5Usart9getParityEv+0xe>
     70c:	2c 91       	ld	r18, X
     70e:	30 e0       	ldi	r19, 0x00	; 0
     710:	00 a4       	ldd	r0, Z+40	; 0x28
     712:	02 c0       	rjmp	.+4      	; 0x718 <_ZN5Usart9getParityEv+0x22>
     714:	35 95       	asr	r19
     716:	27 95       	ror	r18
     718:	0a 94       	dec	r0
     71a:	e2 f7       	brpl	.-8      	; 0x714 <_ZN5Usart9getParityEv+0x1e>
     71c:	21 70       	andi	r18, 0x01	; 1
     71e:	38 2f       	mov	r19, r24
     720:	31 70       	andi	r19, 0x01	; 1
     722:	80 fd       	sbrc	r24, 0
     724:	05 c0       	rjmp	.+10     	; 0x730 <_ZN5Usart9getParityEv+0x3a>
     726:	22 23       	and	r18, r18
     728:	41 f0       	breq	.+16     	; 0x73a <_ZN5Usart9getParityEv+0x44>
     72a:	21 30       	cpi	r18, 0x01	; 1
     72c:	29 f4       	brne	.+10     	; 0x738 <_ZN5Usart9getParityEv+0x42>
     72e:	08 c0       	rjmp	.+16     	; 0x740 <_ZN5Usart9getParityEv+0x4a>
     730:	31 30       	cpi	r19, 0x01	; 1
     732:	11 f4       	brne	.+4      	; 0x738 <_ZN5Usart9getParityEv+0x42>
     734:	22 23       	and	r18, r18
     736:	39 f0       	breq	.+14     	; 0x746 <_ZN5Usart9getParityEv+0x50>
     738:	08 95       	ret
     73a:	20 e0       	ldi	r18, 0x00	; 0
     73c:	30 e0       	ldi	r19, 0x00	; 0
     73e:	05 c0       	rjmp	.+10     	; 0x74a <_ZN5Usart9getParityEv+0x54>
     740:	22 e0       	ldi	r18, 0x02	; 2
     742:	30 e0       	ldi	r19, 0x00	; 0
     744:	02 c0       	rjmp	.+4      	; 0x74a <_ZN5Usart9getParityEv+0x54>
     746:	23 e0       	ldi	r18, 0x03	; 3
     748:	30 e0       	ldi	r19, 0x00	; 0
     74a:	82 2f       	mov	r24, r18
     74c:	93 2f       	mov	r25, r19
     74e:	08 95       	ret

00000750 <_ZN5Usart10setStopBitE14UsartStopBitEL>:
     750:	fc 01       	movw	r30, r24
     752:	61 30       	cpi	r22, 0x01	; 1
     754:	71 05       	cpc	r23, r1
     756:	99 f0       	breq	.+38     	; 0x77e <_ZN5Usart10setStopBitE14UsartStopBitEL+0x2e>
     758:	62 30       	cpi	r22, 0x02	; 2
     75a:	71 05       	cpc	r23, r1
     75c:	f1 f4       	brne	.+60     	; 0x79a <_ZN5Usart10setStopBitE14UsartStopBitEL+0x4a>
     75e:	a3 8d       	ldd	r26, Z+27	; 0x1b
     760:	b4 8d       	ldd	r27, Z+28	; 0x1c
     762:	4c 91       	ld	r20, X
     764:	21 e0       	ldi	r18, 0x01	; 1
     766:	30 e0       	ldi	r19, 0x00	; 0
     768:	c9 01       	movw	r24, r18
     76a:	06 a0       	ldd	r0, Z+38	; 0x26
     76c:	02 c0       	rjmp	.+4      	; 0x772 <_ZN5Usart10setStopBitE14UsartStopBitEL+0x22>
     76e:	88 0f       	add	r24, r24
     770:	99 1f       	adc	r25, r25
     772:	0a 94       	dec	r0
     774:	e2 f7       	brpl	.-8      	; 0x76e <_ZN5Usart10setStopBitE14UsartStopBitEL+0x1e>
     776:	80 95       	com	r24
     778:	84 23       	and	r24, r20
     77a:	8c 93       	st	X, r24
     77c:	08 95       	ret
     77e:	a3 8d       	ldd	r26, Z+27	; 0x1b
     780:	b4 8d       	ldd	r27, Z+28	; 0x1c
     782:	4c 91       	ld	r20, X
     784:	21 e0       	ldi	r18, 0x01	; 1
     786:	30 e0       	ldi	r19, 0x00	; 0
     788:	c9 01       	movw	r24, r18
     78a:	06 a0       	ldd	r0, Z+38	; 0x26
     78c:	02 c0       	rjmp	.+4      	; 0x792 <_ZN5Usart10setStopBitE14UsartStopBitEL+0x42>
     78e:	88 0f       	add	r24, r24
     790:	99 1f       	adc	r25, r25
     792:	0a 94       	dec	r0
     794:	e2 f7       	brpl	.-8      	; 0x78e <_ZN5Usart10setStopBitE14UsartStopBitEL+0x3e>
     796:	84 2b       	or	r24, r20
     798:	8c 93       	st	X, r24
     79a:	08 95       	ret

0000079c <_ZN5UsartC1Eh>:
     79c:	cf 93       	push	r28
     79e:	df 93       	push	r29
     7a0:	ec 01       	movw	r28, r24
     7a2:	6c 8b       	std	Y+20, r22	; 0x14
     7a4:	66 23       	and	r22, r22
     7a6:	61 f5       	brne	.+88     	; 0x800 <_ZN5UsartC1Eh+0x64>
     7a8:	86 ec       	ldi	r24, 0xC6	; 198
     7aa:	90 e0       	ldi	r25, 0x00	; 0
     7ac:	9e 8b       	std	Y+22, r25	; 0x16
     7ae:	8d 8b       	std	Y+21, r24	; 0x15
     7b0:	80 ec       	ldi	r24, 0xC0	; 192
     7b2:	90 e0       	ldi	r25, 0x00	; 0
     7b4:	98 8f       	std	Y+24, r25	; 0x18
     7b6:	8f 8b       	std	Y+23, r24	; 0x17
     7b8:	81 ec       	ldi	r24, 0xC1	; 193
     7ba:	90 e0       	ldi	r25, 0x00	; 0
     7bc:	9a 8f       	std	Y+26, r25	; 0x1a
     7be:	89 8f       	std	Y+25, r24	; 0x19
     7c0:	82 ec       	ldi	r24, 0xC2	; 194
     7c2:	90 e0       	ldi	r25, 0x00	; 0
     7c4:	9c 8f       	std	Y+28, r25	; 0x1c
     7c6:	8b 8f       	std	Y+27, r24	; 0x1b
     7c8:	85 ec       	ldi	r24, 0xC5	; 197
     7ca:	90 e0       	ldi	r25, 0x00	; 0
     7cc:	9e 8f       	std	Y+30, r25	; 0x1e
     7ce:	8d 8f       	std	Y+29, r24	; 0x1d
     7d0:	84 ec       	ldi	r24, 0xC4	; 196
     7d2:	90 e0       	ldi	r25, 0x00	; 0
     7d4:	98 a3       	std	Y+32, r25	; 0x20
     7d6:	8f 8f       	std	Y+31, r24	; 0x1f
     7d8:	43 e0       	ldi	r20, 0x03	; 3
     7da:	49 a3       	std	Y+33, r20	; 0x21
     7dc:	34 e0       	ldi	r19, 0x04	; 4
     7de:	3a a3       	std	Y+34, r19	; 0x22
     7e0:	25 e0       	ldi	r18, 0x05	; 5
     7e2:	2b a3       	std	Y+35, r18	; 0x23
     7e4:	91 e0       	ldi	r25, 0x01	; 1
     7e6:	9c a3       	std	Y+36, r25	; 0x24
     7e8:	87 e0       	ldi	r24, 0x07	; 7
     7ea:	8d a3       	std	Y+37, r24	; 0x25
     7ec:	4e a3       	std	Y+38, r20	; 0x26
     7ee:	3f a3       	std	Y+39, r19	; 0x27
     7f0:	28 a7       	std	Y+40, r18	; 0x28
     7f2:	99 a7       	std	Y+41, r25	; 0x29
     7f4:	92 e0       	ldi	r25, 0x02	; 2
     7f6:	9a a7       	std	Y+42, r25	; 0x2a
     7f8:	9b a7       	std	Y+43, r25	; 0x2b
     7fa:	96 e0       	ldi	r25, 0x06	; 6
     7fc:	9c a7       	std	Y+44, r25	; 0x2c
     7fe:	8d a7       	std	Y+45, r24	; 0x2d
     800:	ce 01       	movw	r24, r28
     802:	60 e0       	ldi	r22, 0x00	; 0
     804:	70 e0       	ldi	r23, 0x00	; 0
     806:	0e 94 28 03 	call	0x650	; 0x650 <_ZN5Usart9setParityE13UsartParityEL>
     80a:	ce 01       	movw	r24, r28
     80c:	61 e0       	ldi	r22, 0x01	; 1
     80e:	70 e0       	ldi	r23, 0x00	; 0
     810:	0e 94 a8 03 	call	0x750	; 0x750 <_ZN5Usart10setStopBitE14UsartStopBitEL>
     814:	ce 01       	movw	r24, r28
     816:	68 e0       	ldi	r22, 0x08	; 8
     818:	70 e0       	ldi	r23, 0x00	; 0
     81a:	0e 94 09 02 	call	0x412	; 0x412 <_ZN5Usart14setFrameLengthE18UsartFrameLengthEL>
     81e:	df 91       	pop	r29
     820:	cf 91       	pop	r28
     822:	08 95       	ret

00000824 <_Z41__static_initialization_and_destruction_0ii>:
     824:	81 30       	cpi	r24, 0x01	; 1
     826:	91 05       	cpc	r25, r1
     828:	51 f4       	brne	.+20     	; 0x83e <_Z41__static_initialization_and_destruction_0ii+0x1a>
     82a:	8f ef       	ldi	r24, 0xFF	; 255
     82c:	6f 3f       	cpi	r22, 0xFF	; 255
     82e:	78 07       	cpc	r23, r24
     830:	81 f4       	brne	.+32     	; 0x852 <_Z41__static_initialization_and_destruction_0ii+0x2e>
     832:	85 e4       	ldi	r24, 0x45	; 69
     834:	91 e0       	ldi	r25, 0x01	; 1
     836:	60 e0       	ldi	r22, 0x00	; 0
     838:	0e 94 ce 03 	call	0x79c	; 0x79c <_ZN5UsartC1Eh>
     83c:	08 95       	ret
     83e:	00 97       	sbiw	r24, 0x00	; 0
     840:	41 f4       	brne	.+16     	; 0x852 <_Z41__static_initialization_and_destruction_0ii+0x2e>
     842:	8f ef       	ldi	r24, 0xFF	; 255
     844:	6f 3f       	cpi	r22, 0xFF	; 255
     846:	78 07       	cpc	r23, r24
     848:	21 f4       	brne	.+8      	; 0x852 <_Z41__static_initialization_and_destruction_0ii+0x2e>
     84a:	85 e4       	ldi	r24, 0x45	; 69
     84c:	91 e0       	ldi	r25, 0x01	; 1
     84e:	0e 94 03 02 	call	0x406	; 0x406 <_ZN5UsartD1Ev>
     852:	08 95       	ret

00000854 <_ZN5Usart10getStopBitEv>:
     854:	fc 01       	movw	r30, r24
     856:	a3 8d       	ldd	r26, Z+27	; 0x1b
     858:	b4 8d       	ldd	r27, Z+28	; 0x1c
     85a:	8c 91       	ld	r24, X
     85c:	90 e0       	ldi	r25, 0x00	; 0
     85e:	06 a0       	ldd	r0, Z+38	; 0x26
     860:	02 c0       	rjmp	.+4      	; 0x866 <_ZN5Usart10getStopBitEv+0x12>
     862:	95 95       	asr	r25
     864:	87 95       	ror	r24
     866:	0a 94       	dec	r0
     868:	e2 f7       	brpl	.-8      	; 0x862 <_ZN5Usart10getStopBitEv+0xe>
     86a:	28 2f       	mov	r18, r24
     86c:	21 70       	andi	r18, 0x01	; 1
     86e:	80 ff       	sbrs	r24, 0
     870:	03 c0       	rjmp	.+6      	; 0x878 <_ZN5Usart10getStopBitEv+0x24>
     872:	21 30       	cpi	r18, 0x01	; 1
     874:	21 f0       	breq	.+8      	; 0x87e <_ZN5Usart10getStopBitEv+0x2a>
     876:	08 95       	ret
     878:	21 e0       	ldi	r18, 0x01	; 1
     87a:	30 e0       	ldi	r19, 0x00	; 0
     87c:	02 c0       	rjmp	.+4      	; 0x882 <_ZN5Usart10getStopBitEv+0x2e>
     87e:	22 e0       	ldi	r18, 0x02	; 2
     880:	30 e0       	ldi	r19, 0x00	; 0
     882:	82 2f       	mov	r24, r18
     884:	93 2f       	mov	r25, r19
     886:	08 95       	ret

00000888 <_ZN5Usart9availableEv>:
     888:	fc 01       	movw	r30, r24
     88a:	22 85       	ldd	r18, Z+10	; 0x0a
     88c:	33 85       	ldd	r19, Z+11	; 0x0b
     88e:	82 2f       	mov	r24, r18
     890:	93 2f       	mov	r25, r19
     892:	08 95       	ret

00000894 <_ZN5Usart5clearEv>:
     894:	fc 01       	movw	r30, r24
     896:	a1 8d       	ldd	r26, Z+25	; 0x19
     898:	b2 8d       	ldd	r27, Z+26	; 0x1a
     89a:	2c 91       	ld	r18, X
     89c:	81 e0       	ldi	r24, 0x01	; 1
     89e:	90 e0       	ldi	r25, 0x00	; 0
     8a0:	01 a0       	ldd	r0, Z+33	; 0x21
     8a2:	02 c0       	rjmp	.+4      	; 0x8a8 <_ZN5Usart5clearEv+0x14>
     8a4:	88 0f       	add	r24, r24
     8a6:	99 1f       	adc	r25, r25
     8a8:	0a 94       	dec	r0
     8aa:	e2 f7       	brpl	.-8      	; 0x8a4 <_ZN5Usart5clearEv+0x10>
     8ac:	30 e0       	ldi	r19, 0x00	; 0
     8ae:	28 23       	and	r18, r24
     8b0:	39 23       	and	r19, r25
     8b2:	12 16       	cp	r1, r18
     8b4:	13 06       	cpc	r1, r19
     8b6:	fc f4       	brge	.+62     	; 0x8f6 <_ZN5Usart5clearEv+0x62>
     8b8:	2c 91       	ld	r18, X
     8ba:	80 95       	com	r24
     8bc:	82 23       	and	r24, r18
     8be:	8c 93       	st	X, r24
     8c0:	80 81       	ld	r24, Z
     8c2:	91 81       	ldd	r25, Z+1	; 0x01
     8c4:	95 83       	std	Z+5, r25	; 0x05
     8c6:	84 83       	std	Z+4, r24	; 0x04
     8c8:	97 83       	std	Z+7, r25	; 0x07
     8ca:	86 83       	std	Z+6, r24	; 0x06
     8cc:	91 87       	std	Z+9, r25	; 0x09
     8ce:	80 87       	std	Z+8, r24	; 0x08
     8d0:	13 86       	std	Z+11, r1	; 0x0b
     8d2:	12 86       	std	Z+10, r1	; 0x0a
     8d4:	15 86       	std	Z+13, r1	; 0x0d
     8d6:	14 86       	std	Z+12, r1	; 0x0c
     8d8:	a1 8d       	ldd	r26, Z+25	; 0x19
     8da:	b2 8d       	ldd	r27, Z+26	; 0x1a
     8dc:	4c 91       	ld	r20, X
     8de:	21 e0       	ldi	r18, 0x01	; 1
     8e0:	30 e0       	ldi	r19, 0x00	; 0
     8e2:	c9 01       	movw	r24, r18
     8e4:	01 a0       	ldd	r0, Z+33	; 0x21
     8e6:	02 c0       	rjmp	.+4      	; 0x8ec <_ZN5Usart5clearEv+0x58>
     8e8:	88 0f       	add	r24, r24
     8ea:	99 1f       	adc	r25, r25
     8ec:	0a 94       	dec	r0
     8ee:	e2 f7       	brpl	.-8      	; 0x8e8 <_ZN5Usart5clearEv+0x54>
     8f0:	84 2b       	or	r24, r20
     8f2:	8c 93       	st	X, r24
     8f4:	0c c0       	rjmp	.+24     	; 0x90e <__stack+0xf>
     8f6:	80 81       	ld	r24, Z
     8f8:	91 81       	ldd	r25, Z+1	; 0x01
     8fa:	95 83       	std	Z+5, r25	; 0x05
     8fc:	84 83       	std	Z+4, r24	; 0x04
     8fe:	97 83       	std	Z+7, r25	; 0x07
     900:	86 83       	std	Z+6, r24	; 0x06
     902:	91 87       	std	Z+9, r25	; 0x09
     904:	80 87       	std	Z+8, r24	; 0x08
     906:	13 86       	std	Z+11, r1	; 0x0b
     908:	12 86       	std	Z+10, r1	; 0x0a
     90a:	15 86       	std	Z+13, r1	; 0x0d
     90c:	14 86       	std	Z+12, r1	; 0x0c
     90e:	81 e0       	ldi	r24, 0x01	; 1
     910:	08 95       	ret

00000912 <_ZN5Usart12getMaxLengthEv>:
     912:	fc 01       	movw	r30, r24
     914:	86 85       	ldd	r24, Z+14	; 0x0e
     916:	97 85       	ldd	r25, Z+15	; 0x0f
     918:	08 95       	ret

0000091a <_ZN5Usart16getRxLostBytesNrEv>:
     91a:	fc 01       	movw	r30, r24
     91c:	24 85       	ldd	r18, Z+12	; 0x0c
     91e:	35 85       	ldd	r19, Z+13	; 0x0d
     920:	82 2f       	mov	r24, r18
     922:	93 2f       	mov	r25, r19
     924:	08 95       	ret

00000926 <_ZN5Usart5beginEmj11UsartModeEL>:
     926:	8f 92       	push	r8
     928:	9f 92       	push	r9
     92a:	af 92       	push	r10
     92c:	bf 92       	push	r11
     92e:	cf 92       	push	r12
     930:	df 92       	push	r13
     932:	ef 92       	push	r14
     934:	ff 92       	push	r15
     936:	0f 93       	push	r16
     938:	1f 93       	push	r17
     93a:	cf 93       	push	r28
     93c:	df 93       	push	r29
     93e:	ec 01       	movw	r28, r24
     940:	5a 01       	movw	r10, r20
     942:	6b 01       	movw	r12, r22
     944:	49 01       	movw	r8, r18
     946:	ee 84       	ldd	r14, Y+14	; 0x0e
     948:	ff 84       	ldd	r15, Y+15	; 0x0f
     94a:	c7 01       	movw	r24, r14
     94c:	0e 94 56 08 	call	0x10ac	; 0x10ac <malloc>
     950:	28 2f       	mov	r18, r24
     952:	39 2f       	mov	r19, r25
     954:	39 83       	std	Y+1, r19	; 0x01
     956:	28 83       	st	Y, r18
     958:	e2 0e       	add	r14, r18
     95a:	f3 1e       	adc	r15, r19
     95c:	fb 82       	std	Y+3, r15	; 0x03
     95e:	ea 82       	std	Y+2, r14	; 0x02
     960:	3d 83       	std	Y+5, r19	; 0x05
     962:	2c 83       	std	Y+4, r18	; 0x04
     964:	3f 83       	std	Y+7, r19	; 0x07
     966:	2e 83       	std	Y+6, r18	; 0x06
     968:	39 87       	std	Y+9, r19	; 0x09
     96a:	28 87       	std	Y+8, r18	; 0x08
     96c:	1b 86       	std	Y+11, r1	; 0x0b
     96e:	1a 86       	std	Y+10, r1	; 0x0a
     970:	1d 86       	std	Y+13, r1	; 0x0d
     972:	1c 86       	std	Y+12, r1	; 0x0c
     974:	9f 86       	std	Y+15, r9	; 0x0f
     976:	8e 86       	std	Y+14, r8	; 0x0e
     978:	a8 8a       	std	Y+16, r10	; 0x10
     97a:	b9 8a       	std	Y+17, r11	; 0x11
     97c:	ca 8a       	std	Y+18, r12	; 0x12
     97e:	db 8a       	std	Y+19, r13	; 0x13
     980:	01 30       	cpi	r16, 0x01	; 1
     982:	11 05       	cpc	r17, r1
     984:	a1 f1       	breq	.+104    	; 0x9ee <_ZN5Usart5beginEmj11UsartModeEL+0xc8>
     986:	01 30       	cpi	r16, 0x01	; 1
     988:	11 05       	cpc	r17, r1
     98a:	0c f4       	brge	.+2      	; 0x98e <_ZN5Usart5beginEmj11UsartModeEL+0x68>
     98c:	58 c0       	rjmp	.+176    	; 0xa3e <_ZN5Usart5beginEmj11UsartModeEL+0x118>
     98e:	02 30       	cpi	r16, 0x02	; 2
     990:	11 05       	cpc	r17, r1
     992:	09 f0       	breq	.+2      	; 0x996 <_ZN5Usart5beginEmj11UsartModeEL+0x70>
     994:	7c c0       	rjmp	.+248    	; 0xa8e <_ZN5Usart5beginEmj11UsartModeEL+0x168>
     996:	60 e0       	ldi	r22, 0x00	; 0
     998:	72 e1       	ldi	r23, 0x12	; 18
     99a:	8a e7       	ldi	r24, 0x7A	; 122
     99c:	90 e0       	ldi	r25, 0x00	; 0
     99e:	a6 01       	movw	r20, r12
     9a0:	95 01       	movw	r18, r10
     9a2:	0e 94 1a 08 	call	0x1034	; 0x1034 <__udivmodsi4>
     9a6:	21 50       	subi	r18, 0x01	; 1
     9a8:	30 40       	sbci	r19, 0x00	; 0
     9aa:	40 40       	sbci	r20, 0x00	; 0
     9ac:	50 40       	sbci	r21, 0x00	; 0
     9ae:	56 95       	lsr	r21
     9b0:	47 95       	ror	r20
     9b2:	37 95       	ror	r19
     9b4:	27 95       	ror	r18
     9b6:	eb 8d       	ldd	r30, Y+27	; 0x1b
     9b8:	fc 8d       	ldd	r31, Y+28	; 0x1c
     9ba:	60 81       	ld	r22, Z
     9bc:	81 e0       	ldi	r24, 0x01	; 1
     9be:	90 e0       	ldi	r25, 0x00	; 0
     9c0:	ac 01       	movw	r20, r24
     9c2:	0c a4       	ldd	r0, Y+44	; 0x2c
     9c4:	02 c0       	rjmp	.+4      	; 0x9ca <_ZN5Usart5beginEmj11UsartModeEL+0xa4>
     9c6:	44 0f       	add	r20, r20
     9c8:	55 1f       	adc	r21, r21
     9ca:	0a 94       	dec	r0
     9cc:	e2 f7       	brpl	.-8      	; 0x9c6 <_ZN5Usart5beginEmj11UsartModeEL+0xa0>
     9ce:	46 2b       	or	r20, r22
     9d0:	40 83       	st	Z, r20
     9d2:	eb 8d       	ldd	r30, Y+27	; 0x1b
     9d4:	fc 8d       	ldd	r31, Y+28	; 0x1c
     9d6:	40 81       	ld	r20, Z
     9d8:	0d a4       	ldd	r0, Y+45	; 0x2d
     9da:	02 c0       	rjmp	.+4      	; 0x9e0 <_ZN5Usart5beginEmj11UsartModeEL+0xba>
     9dc:	88 0f       	add	r24, r24
     9de:	99 1f       	adc	r25, r25
     9e0:	0a 94       	dec	r0
     9e2:	e2 f7       	brpl	.-8      	; 0x9dc <_ZN5Usart5beginEmj11UsartModeEL+0xb6>
     9e4:	80 95       	com	r24
     9e6:	84 23       	and	r24, r20
     9e8:	80 83       	st	Z, r24
     9ea:	80 e0       	ldi	r24, 0x00	; 0
     9ec:	53 c0       	rjmp	.+166    	; 0xa94 <_ZN5Usart5beginEmj11UsartModeEL+0x16e>
     9ee:	60 e0       	ldi	r22, 0x00	; 0
     9f0:	79 e0       	ldi	r23, 0x09	; 9
     9f2:	8d e3       	ldi	r24, 0x3D	; 61
     9f4:	90 e0       	ldi	r25, 0x00	; 0
     9f6:	a6 01       	movw	r20, r12
     9f8:	95 01       	movw	r18, r10
     9fa:	0e 94 1a 08 	call	0x1034	; 0x1034 <__udivmodsi4>
     9fe:	21 50       	subi	r18, 0x01	; 1
     a00:	30 40       	sbci	r19, 0x00	; 0
     a02:	40 40       	sbci	r20, 0x00	; 0
     a04:	50 40       	sbci	r21, 0x00	; 0
     a06:	56 95       	lsr	r21
     a08:	47 95       	ror	r20
     a0a:	37 95       	ror	r19
     a0c:	27 95       	ror	r18
     a0e:	eb 8d       	ldd	r30, Y+27	; 0x1b
     a10:	fc 8d       	ldd	r31, Y+28	; 0x1c
     a12:	60 81       	ld	r22, Z
     a14:	81 e0       	ldi	r24, 0x01	; 1
     a16:	90 e0       	ldi	r25, 0x00	; 0
     a18:	ac 01       	movw	r20, r24
     a1a:	0d a4       	ldd	r0, Y+45	; 0x2d
     a1c:	02 c0       	rjmp	.+4      	; 0xa22 <_ZN5Usart5beginEmj11UsartModeEL+0xfc>
     a1e:	44 0f       	add	r20, r20
     a20:	55 1f       	adc	r21, r21
     a22:	0a 94       	dec	r0
     a24:	e2 f7       	brpl	.-8      	; 0xa1e <_ZN5Usart5beginEmj11UsartModeEL+0xf8>
     a26:	0c a4       	ldd	r0, Y+44	; 0x2c
     a28:	02 c0       	rjmp	.+4      	; 0xa2e <_ZN5Usart5beginEmj11UsartModeEL+0x108>
     a2a:	88 0f       	add	r24, r24
     a2c:	99 1f       	adc	r25, r25
     a2e:	0a 94       	dec	r0
     a30:	e2 f7       	brpl	.-8      	; 0xa2a <_ZN5Usart5beginEmj11UsartModeEL+0x104>
     a32:	84 23       	and	r24, r20
     a34:	80 95       	com	r24
     a36:	86 23       	and	r24, r22
     a38:	80 83       	st	Z, r24
     a3a:	81 e0       	ldi	r24, 0x01	; 1
     a3c:	2b c0       	rjmp	.+86     	; 0xa94 <_ZN5Usart5beginEmj11UsartModeEL+0x16e>
     a3e:	60 e8       	ldi	r22, 0x80	; 128
     a40:	74 e8       	ldi	r23, 0x84	; 132
     a42:	8e e1       	ldi	r24, 0x1E	; 30
     a44:	90 e0       	ldi	r25, 0x00	; 0
     a46:	a6 01       	movw	r20, r12
     a48:	95 01       	movw	r18, r10
     a4a:	0e 94 1a 08 	call	0x1034	; 0x1034 <__udivmodsi4>
     a4e:	21 50       	subi	r18, 0x01	; 1
     a50:	30 40       	sbci	r19, 0x00	; 0
     a52:	40 40       	sbci	r20, 0x00	; 0
     a54:	50 40       	sbci	r21, 0x00	; 0
     a56:	56 95       	lsr	r21
     a58:	47 95       	ror	r20
     a5a:	37 95       	ror	r19
     a5c:	27 95       	ror	r18
     a5e:	eb 8d       	ldd	r30, Y+27	; 0x1b
     a60:	fc 8d       	ldd	r31, Y+28	; 0x1c
     a62:	60 81       	ld	r22, Z
     a64:	81 e0       	ldi	r24, 0x01	; 1
     a66:	90 e0       	ldi	r25, 0x00	; 0
     a68:	ac 01       	movw	r20, r24
     a6a:	0d a4       	ldd	r0, Y+45	; 0x2d
     a6c:	02 c0       	rjmp	.+4      	; 0xa72 <_ZN5Usart5beginEmj11UsartModeEL+0x14c>
     a6e:	44 0f       	add	r20, r20
     a70:	55 1f       	adc	r21, r21
     a72:	0a 94       	dec	r0
     a74:	e2 f7       	brpl	.-8      	; 0xa6e <_ZN5Usart5beginEmj11UsartModeEL+0x148>
     a76:	0c a4       	ldd	r0, Y+44	; 0x2c
     a78:	02 c0       	rjmp	.+4      	; 0xa7e <_ZN5Usart5beginEmj11UsartModeEL+0x158>
     a7a:	88 0f       	add	r24, r24
     a7c:	99 1f       	adc	r25, r25
     a7e:	0a 94       	dec	r0
     a80:	e2 f7       	brpl	.-8      	; 0xa7a <_ZN5Usart5beginEmj11UsartModeEL+0x154>
     a82:	84 23       	and	r24, r20
     a84:	80 95       	com	r24
     a86:	86 23       	and	r24, r22
     a88:	80 83       	st	Z, r24
     a8a:	80 e0       	ldi	r24, 0x00	; 0
     a8c:	03 c0       	rjmp	.+6      	; 0xa94 <_ZN5Usart5beginEmj11UsartModeEL+0x16e>
     a8e:	80 e0       	ldi	r24, 0x00	; 0
     a90:	20 e0       	ldi	r18, 0x00	; 0
     a92:	30 e0       	ldi	r19, 0x00	; 0
     a94:	ef 89       	ldd	r30, Y+23	; 0x17
     a96:	f8 8d       	ldd	r31, Y+24	; 0x18
     a98:	90 e0       	ldi	r25, 0x00	; 0
     a9a:	0c a0       	ldd	r0, Y+36	; 0x24
     a9c:	02 c0       	rjmp	.+4      	; 0xaa2 <_ZN5Usart5beginEmj11UsartModeEL+0x17c>
     a9e:	88 0f       	add	r24, r24
     aa0:	99 1f       	adc	r25, r25
     aa2:	0a 94       	dec	r0
     aa4:	e2 f7       	brpl	.-8      	; 0xa9e <_ZN5Usart5beginEmj11UsartModeEL+0x178>
     aa6:	80 83       	st	Z, r24
     aa8:	ed 8d       	ldd	r30, Y+29	; 0x1d
     aaa:	fe 8d       	ldd	r31, Y+30	; 0x1e
     aac:	30 83       	st	Z, r19
     aae:	ef 8d       	ldd	r30, Y+31	; 0x1f
     ab0:	f8 a1       	ldd	r31, Y+32	; 0x20
     ab2:	20 83       	st	Z, r18
     ab4:	e9 8d       	ldd	r30, Y+25	; 0x19
     ab6:	fa 8d       	ldd	r31, Y+26	; 0x1a
     ab8:	40 81       	ld	r20, Z
     aba:	81 e0       	ldi	r24, 0x01	; 1
     abc:	90 e0       	ldi	r25, 0x00	; 0
     abe:	9c 01       	movw	r18, r24
     ac0:	09 a0       	ldd	r0, Y+33	; 0x21
     ac2:	02 c0       	rjmp	.+4      	; 0xac8 <_ZN5Usart5beginEmj11UsartModeEL+0x1a2>
     ac4:	22 0f       	add	r18, r18
     ac6:	33 1f       	adc	r19, r19
     ac8:	0a 94       	dec	r0
     aca:	e2 f7       	brpl	.-8      	; 0xac4 <_ZN5Usart5beginEmj11UsartModeEL+0x19e>
     acc:	24 2b       	or	r18, r20
     ace:	20 83       	st	Z, r18
     ad0:	e9 8d       	ldd	r30, Y+25	; 0x19
     ad2:	fa 8d       	ldd	r31, Y+26	; 0x1a
     ad4:	40 81       	ld	r20, Z
     ad6:	9c 01       	movw	r18, r24
     ad8:	0a a0       	ldd	r0, Y+34	; 0x22
     ada:	02 c0       	rjmp	.+4      	; 0xae0 <_ZN5Usart5beginEmj11UsartModeEL+0x1ba>
     adc:	22 0f       	add	r18, r18
     ade:	33 1f       	adc	r19, r19
     ae0:	0a 94       	dec	r0
     ae2:	e2 f7       	brpl	.-8      	; 0xadc <_ZN5Usart5beginEmj11UsartModeEL+0x1b6>
     ae4:	0d a0       	ldd	r0, Y+37	; 0x25
     ae6:	02 c0       	rjmp	.+4      	; 0xaec <_ZN5Usart5beginEmj11UsartModeEL+0x1c6>
     ae8:	88 0f       	add	r24, r24
     aea:	99 1f       	adc	r25, r25
     aec:	0a 94       	dec	r0
     aee:	e2 f7       	brpl	.-8      	; 0xae8 <_ZN5Usart5beginEmj11UsartModeEL+0x1c2>
     af0:	82 2b       	or	r24, r18
     af2:	84 2b       	or	r24, r20
     af4:	80 83       	st	Z, r24
     af6:	78 94       	sei
     af8:	df 91       	pop	r29
     afa:	cf 91       	pop	r28
     afc:	1f 91       	pop	r17
     afe:	0f 91       	pop	r16
     b00:	ff 90       	pop	r15
     b02:	ef 90       	pop	r14
     b04:	df 90       	pop	r13
     b06:	cf 90       	pop	r12
     b08:	bf 90       	pop	r11
     b0a:	af 90       	pop	r10
     b0c:	9f 90       	pop	r9
     b0e:	8f 90       	pop	r8
     b10:	08 95       	ret

00000b12 <_ZN5Usart4readEb>:
     b12:	fc 01       	movw	r30, r24
     b14:	82 85       	ldd	r24, Z+10	; 0x0a
     b16:	93 85       	ldd	r25, Z+11	; 0x0b
     b18:	00 97       	sbiw	r24, 0x00	; 0
     b1a:	31 f1       	breq	.+76     	; 0xb68 <_ZN5Usart4readEb+0x56>
     b1c:	66 23       	and	r22, r22
     b1e:	a9 f0       	breq	.+42     	; 0xb4a <_ZN5Usart4readEb+0x38>
     b20:	a4 81       	ldd	r26, Z+4	; 0x04
     b22:	b5 81       	ldd	r27, Z+5	; 0x05
     b24:	8d 91       	ld	r24, X+
     b26:	b5 83       	std	Z+5, r27	; 0x05
     b28:	a4 83       	std	Z+4, r26	; 0x04
     b2a:	22 81       	ldd	r18, Z+2	; 0x02
     b2c:	33 81       	ldd	r19, Z+3	; 0x03
     b2e:	a2 17       	cp	r26, r18
     b30:	b3 07       	cpc	r27, r19
     b32:	21 f4       	brne	.+8      	; 0xb3c <_ZN5Usart4readEb+0x2a>
     b34:	20 81       	ld	r18, Z
     b36:	31 81       	ldd	r19, Z+1	; 0x01
     b38:	35 83       	std	Z+5, r19	; 0x05
     b3a:	24 83       	std	Z+4, r18	; 0x04
     b3c:	22 85       	ldd	r18, Z+10	; 0x0a
     b3e:	33 85       	ldd	r19, Z+11	; 0x0b
     b40:	21 50       	subi	r18, 0x01	; 1
     b42:	30 40       	sbci	r19, 0x00	; 0
     b44:	33 87       	std	Z+11, r19	; 0x0b
     b46:	22 87       	std	Z+10, r18	; 0x0a
     b48:	08 95       	ret
     b4a:	a6 81       	ldd	r26, Z+6	; 0x06
     b4c:	b7 81       	ldd	r27, Z+7	; 0x07
     b4e:	8d 91       	ld	r24, X+
     b50:	b7 83       	std	Z+7, r27	; 0x07
     b52:	a6 83       	std	Z+6, r26	; 0x06
     b54:	22 81       	ldd	r18, Z+2	; 0x02
     b56:	33 81       	ldd	r19, Z+3	; 0x03
     b58:	a2 17       	cp	r26, r18
     b5a:	b3 07       	cpc	r27, r19
     b5c:	31 f4       	brne	.+12     	; 0xb6a <_ZN5Usart4readEb+0x58>
     b5e:	20 81       	ld	r18, Z
     b60:	31 81       	ldd	r19, Z+1	; 0x01
     b62:	37 83       	std	Z+7, r19	; 0x07
     b64:	26 83       	std	Z+6, r18	; 0x06
     b66:	08 95       	ret
     b68:	80 e0       	ldi	r24, 0x00	; 0
     b6a:	08 95       	ret

00000b6c <_ZN5Usart9writeByteEh>:
     b6c:	fc 01       	movw	r30, r24
     b6e:	a7 89       	ldd	r26, Z+23	; 0x17
     b70:	b0 8d       	ldd	r27, Z+24	; 0x18
     b72:	23 a1       	ldd	r18, Z+35	; 0x23
     b74:	8c 91       	ld	r24, X
     b76:	90 e0       	ldi	r25, 0x00	; 0
     b78:	02 2e       	mov	r0, r18
     b7a:	02 c0       	rjmp	.+4      	; 0xb80 <_ZN5Usart9writeByteEh+0x14>
     b7c:	95 95       	asr	r25
     b7e:	87 95       	ror	r24
     b80:	0a 94       	dec	r0
     b82:	e2 f7       	brpl	.-8      	; 0xb7c <_ZN5Usart9writeByteEh+0x10>
     b84:	80 ff       	sbrs	r24, 0
     b86:	f6 cf       	rjmp	.-20     	; 0xb74 <_ZN5Usart9writeByteEh+0x8>
     b88:	05 88       	ldd	r0, Z+21	; 0x15
     b8a:	f6 89       	ldd	r31, Z+22	; 0x16
     b8c:	e0 2d       	mov	r30, r0
     b8e:	60 83       	st	Z, r22
     b90:	08 95       	ret

00000b92 <_ZN5Usart11writeFromPMEPKc>:
     b92:	0f 93       	push	r16
     b94:	1f 93       	push	r17
     b96:	cf 93       	push	r28
     b98:	df 93       	push	r29
     b9a:	8c 01       	movw	r16, r24
     b9c:	eb 01       	movw	r28, r22
     b9e:	fb 01       	movw	r30, r22
     ba0:	64 91       	lpm	r22, Z+
     ba2:	66 23       	and	r22, r22
     ba4:	49 f0       	breq	.+18     	; 0xbb8 <_ZN5Usart11writeFromPMEPKc+0x26>
     ba6:	21 96       	adiw	r28, 0x01	; 1
     ba8:	c8 01       	movw	r24, r16
     baa:	0e 94 b6 05 	call	0xb6c	; 0xb6c <_ZN5Usart9writeByteEh>
     bae:	fe 01       	movw	r30, r28
     bb0:	21 96       	adiw	r28, 0x01	; 1
     bb2:	64 91       	lpm	r22, Z+
     bb4:	66 23       	and	r22, r22
     bb6:	c1 f7       	brne	.-16     	; 0xba8 <_ZN5Usart11writeFromPMEPKc+0x16>
     bb8:	df 91       	pop	r29
     bba:	cf 91       	pop	r28
     bbc:	1f 91       	pop	r17
     bbe:	0f 91       	pop	r16
     bc0:	08 95       	ret

00000bc2 <_ZN5Usart10writeBytesEPhj>:
     bc2:	cf 92       	push	r12
     bc4:	df 92       	push	r13
     bc6:	ef 92       	push	r14
     bc8:	ff 92       	push	r15
     bca:	0f 93       	push	r16
     bcc:	1f 93       	push	r17
     bce:	cf 93       	push	r28
     bd0:	df 93       	push	r29
     bd2:	6c 01       	movw	r12, r24
     bd4:	8b 01       	movw	r16, r22
     bd6:	7a 01       	movw	r14, r20
     bd8:	41 15       	cp	r20, r1
     bda:	51 05       	cpc	r21, r1
     bdc:	61 f0       	breq	.+24     	; 0xbf6 <_ZN5Usart10writeBytesEPhj+0x34>
     bde:	c0 e0       	ldi	r28, 0x00	; 0
     be0:	d0 e0       	ldi	r29, 0x00	; 0
     be2:	f8 01       	movw	r30, r16
     be4:	61 91       	ld	r22, Z+
     be6:	8f 01       	movw	r16, r30
     be8:	c6 01       	movw	r24, r12
     bea:	0e 94 b6 05 	call	0xb6c	; 0xb6c <_ZN5Usart9writeByteEh>
     bee:	21 96       	adiw	r28, 0x01	; 1
     bf0:	ce 15       	cp	r28, r14
     bf2:	df 05       	cpc	r29, r15
     bf4:	b0 f3       	brcs	.-20     	; 0xbe2 <_ZN5Usart10writeBytesEPhj+0x20>
     bf6:	df 91       	pop	r29
     bf8:	cf 91       	pop	r28
     bfa:	1f 91       	pop	r17
     bfc:	0f 91       	pop	r16
     bfe:	ff 90       	pop	r15
     c00:	ef 90       	pop	r14
     c02:	df 90       	pop	r13
     c04:	cf 90       	pop	r12
     c06:	08 95       	ret

00000c08 <_ZN5Usart5writeEPKc>:
     c08:	0f 93       	push	r16
     c0a:	1f 93       	push	r17
     c0c:	cf 93       	push	r28
     c0e:	df 93       	push	r29
     c10:	8c 01       	movw	r16, r24
     c12:	eb 01       	movw	r28, r22
     c14:	68 81       	ld	r22, Y
     c16:	66 23       	and	r22, r22
     c18:	39 f0       	breq	.+14     	; 0xc28 <_ZN5Usart5writeEPKc+0x20>
     c1a:	21 96       	adiw	r28, 0x01	; 1
     c1c:	c8 01       	movw	r24, r16
     c1e:	0e 94 b6 05 	call	0xb6c	; 0xb6c <_ZN5Usart9writeByteEh>
     c22:	69 91       	ld	r22, Y+
     c24:	66 23       	and	r22, r22
     c26:	d1 f7       	brne	.-12     	; 0xc1c <_ZN5Usart5writeEPKc+0x14>
     c28:	df 91       	pop	r29
     c2a:	cf 91       	pop	r28
     c2c:	1f 91       	pop	r17
     c2e:	0f 91       	pop	r16
     c30:	08 95       	ret

00000c32 <_ZN5Usart5writeEm>:
     c32:	6f 92       	push	r6
     c34:	7f 92       	push	r7
     c36:	8f 92       	push	r8
     c38:	9f 92       	push	r9
     c3a:	af 92       	push	r10
     c3c:	bf 92       	push	r11
     c3e:	cf 92       	push	r12
     c40:	df 92       	push	r13
     c42:	ff 92       	push	r15
     c44:	0f 93       	push	r16
     c46:	1f 93       	push	r17
     c48:	df 93       	push	r29
     c4a:	cf 93       	push	r28
     c4c:	cd b7       	in	r28, 0x3d	; 61
     c4e:	de b7       	in	r29, 0x3e	; 62
     c50:	2a 97       	sbiw	r28, 0x0a	; 10
     c52:	0f b6       	in	r0, 0x3f	; 63
     c54:	f8 94       	cli
     c56:	de bf       	out	0x3e, r29	; 62
     c58:	0f be       	out	0x3f, r0	; 63
     c5a:	cd bf       	out	0x3d, r28	; 61
     c5c:	4c 01       	movw	r8, r24
     c5e:	cb 01       	movw	r24, r22
     c60:	ba 01       	movw	r22, r20
     c62:	ff 24       	eor	r15, r15
     c64:	3e 01       	movw	r6, r28
     c66:	08 94       	sec
     c68:	61 1c       	adc	r6, r1
     c6a:	71 1c       	adc	r7, r1
     c6c:	0f 2e       	mov	r0, r31
     c6e:	fa e0       	ldi	r31, 0x0A	; 10
     c70:	af 2e       	mov	r10, r31
     c72:	f0 e0       	ldi	r31, 0x00	; 0
     c74:	bf 2e       	mov	r11, r31
     c76:	f0 e0       	ldi	r31, 0x00	; 0
     c78:	cf 2e       	mov	r12, r31
     c7a:	f0 e0       	ldi	r31, 0x00	; 0
     c7c:	df 2e       	mov	r13, r31
     c7e:	f0 2d       	mov	r31, r0
     c80:	83 01       	movw	r16, r6
     c82:	0f 0d       	add	r16, r15
     c84:	11 1d       	adc	r17, r1
     c86:	a6 01       	movw	r20, r12
     c88:	95 01       	movw	r18, r10
     c8a:	0e 94 1a 08 	call	0x1034	; 0x1034 <__udivmodsi4>
     c8e:	60 5d       	subi	r22, 0xD0	; 208
     c90:	f8 01       	movw	r30, r16
     c92:	60 83       	st	Z, r22
     c94:	f3 94       	inc	r15
     c96:	62 2f       	mov	r22, r18
     c98:	73 2f       	mov	r23, r19
     c9a:	84 2f       	mov	r24, r20
     c9c:	95 2f       	mov	r25, r21
     c9e:	61 15       	cp	r22, r1
     ca0:	71 05       	cpc	r23, r1
     ca2:	81 05       	cpc	r24, r1
     ca4:	91 05       	cpc	r25, r1
     ca6:	61 f7       	brne	.-40     	; 0xc80 <_ZN5Usart5writeEm+0x4e>
     ca8:	ff 20       	and	r15, r15
     caa:	69 f0       	breq	.+26     	; 0xcc6 <_ZN5Usart5writeEm+0x94>
     cac:	8e 01       	movw	r16, r28
     cae:	0f 5f       	subi	r16, 0xFF	; 255
     cb0:	1f 4f       	sbci	r17, 0xFF	; 255
     cb2:	fa 94       	dec	r15
     cb4:	f8 01       	movw	r30, r16
     cb6:	ef 0d       	add	r30, r15
     cb8:	f1 1d       	adc	r31, r1
     cba:	c4 01       	movw	r24, r8
     cbc:	60 81       	ld	r22, Z
     cbe:	0e 94 b6 05 	call	0xb6c	; 0xb6c <_ZN5Usart9writeByteEh>
     cc2:	ff 20       	and	r15, r15
     cc4:	b1 f7       	brne	.-20     	; 0xcb2 <_ZN5Usart5writeEm+0x80>
     cc6:	2a 96       	adiw	r28, 0x0a	; 10
     cc8:	0f b6       	in	r0, 0x3f	; 63
     cca:	f8 94       	cli
     ccc:	de bf       	out	0x3e, r29	; 62
     cce:	0f be       	out	0x3f, r0	; 63
     cd0:	cd bf       	out	0x3d, r28	; 61
     cd2:	cf 91       	pop	r28
     cd4:	df 91       	pop	r29
     cd6:	1f 91       	pop	r17
     cd8:	0f 91       	pop	r16
     cda:	ff 90       	pop	r15
     cdc:	df 90       	pop	r13
     cde:	cf 90       	pop	r12
     ce0:	bf 90       	pop	r11
     ce2:	af 90       	pop	r10
     ce4:	9f 90       	pop	r9
     ce6:	8f 90       	pop	r8
     ce8:	7f 90       	pop	r7
     cea:	6f 90       	pop	r6
     cec:	08 95       	ret

00000cee <_ZN5Usart5writeEl>:
     cee:	ef 92       	push	r14
     cf0:	ff 92       	push	r15
     cf2:	0f 93       	push	r16
     cf4:	1f 93       	push	r17
     cf6:	cf 93       	push	r28
     cf8:	df 93       	push	r29
     cfa:	ec 01       	movw	r28, r24
     cfc:	7a 01       	movw	r14, r20
     cfe:	8b 01       	movw	r16, r22
     d00:	77 23       	and	r23, r23
     d02:	1c f4       	brge	.+6      	; 0xd0a <_ZN5Usart5writeEl+0x1c>
     d04:	6d e2       	ldi	r22, 0x2D	; 45
     d06:	0e 94 b6 05 	call	0xb6c	; 0xb6c <_ZN5Usart9writeByteEh>
     d0a:	ce 01       	movw	r24, r28
     d0c:	b8 01       	movw	r22, r16
     d0e:	a7 01       	movw	r20, r14
     d10:	0e 94 19 06 	call	0xc32	; 0xc32 <_ZN5Usart5writeEm>
     d14:	df 91       	pop	r29
     d16:	cf 91       	pop	r28
     d18:	1f 91       	pop	r17
     d1a:	0f 91       	pop	r16
     d1c:	ff 90       	pop	r15
     d1e:	ef 90       	pop	r14
     d20:	08 95       	ret

00000d22 <_ZN5Usart5writeEi>:
     d22:	9b 01       	movw	r18, r22
     d24:	a9 01       	movw	r20, r18
     d26:	66 27       	eor	r22, r22
     d28:	57 fd       	sbrc	r21, 7
     d2a:	60 95       	com	r22
     d2c:	76 2f       	mov	r23, r22
     d2e:	0e 94 77 06 	call	0xcee	; 0xcee <_ZN5Usart5writeEl>
     d32:	08 95       	ret

00000d34 <_ZN5Usart5writeEj>:
     d34:	ab 01       	movw	r20, r22
     d36:	60 e0       	ldi	r22, 0x00	; 0
     d38:	70 e0       	ldi	r23, 0x00	; 0
     d3a:	0e 94 19 06 	call	0xc32	; 0xc32 <_ZN5Usart5writeEm>
     d3e:	08 95       	ret

00000d40 <_ZN5Usart4findEPKcb>:
     d40:	af 92       	push	r10
     d42:	bf 92       	push	r11
     d44:	cf 92       	push	r12
     d46:	df 92       	push	r13
     d48:	ef 92       	push	r14
     d4a:	ff 92       	push	r15
     d4c:	0f 93       	push	r16
     d4e:	1f 93       	push	r17
     d50:	cf 93       	push	r28
     d52:	df 93       	push	r29
     d54:	6c 01       	movw	r12, r24
     d56:	eb 01       	movw	r28, r22
     d58:	b4 2e       	mov	r11, r20
     d5a:	88 81       	ld	r24, Y
     d5c:	88 23       	and	r24, r24
     d5e:	39 f1       	breq	.+78     	; 0xdae <_ZN5Usart4findEPKcb+0x6e>
     d60:	fb 01       	movw	r30, r22
     d62:	31 96       	adiw	r30, 0x01	; 1
     d64:	10 e0       	ldi	r17, 0x00	; 0
     d66:	1f 5f       	subi	r17, 0xFF	; 255
     d68:	81 91       	ld	r24, Z+
     d6a:	88 23       	and	r24, r24
     d6c:	e1 f7       	brne	.-8      	; 0xd66 <_ZN5Usart4findEPKcb+0x26>
     d6e:	c6 01       	movw	r24, r12
     d70:	0e 94 44 04 	call	0x888	; 0x888 <_ZN5Usart9availableEv>
     d74:	f8 2e       	mov	r15, r24
     d76:	f6 01       	movw	r30, r12
     d78:	84 81       	ldd	r24, Z+4	; 0x04
     d7a:	95 81       	ldd	r25, Z+5	; 0x05
     d7c:	97 83       	std	Z+7, r25	; 0x07
     d7e:	86 83       	std	Z+6, r24	; 0x06
     d80:	ff 20       	and	r15, r15
     d82:	b9 f0       	breq	.+46     	; 0xdb2 <_ZN5Usart4findEPKcb+0x72>
     d84:	00 e0       	ldi	r16, 0x00	; 0
     d86:	aa 24       	eor	r10, r10
     d88:	fe 01       	movw	r30, r28
     d8a:	e0 0f       	add	r30, r16
     d8c:	f1 1d       	adc	r31, r1
     d8e:	e0 80       	ld	r14, Z
     d90:	c6 01       	movw	r24, r12
     d92:	6b 2d       	mov	r22, r11
     d94:	0e 94 89 05 	call	0xb12	; 0xb12 <_ZN5Usart4readEb>
     d98:	e8 16       	cp	r14, r24
     d9a:	11 f4       	brne	.+4      	; 0xda0 <_ZN5Usart4findEPKcb+0x60>
     d9c:	0f 5f       	subi	r16, 0xFF	; 255
     d9e:	01 c0       	rjmp	.+2      	; 0xda2 <_ZN5Usart4findEPKcb+0x62>
     da0:	0a 2d       	mov	r16, r10
     da2:	01 17       	cp	r16, r17
     da4:	41 f0       	breq	.+16     	; 0xdb6 <_ZN5Usart4findEPKcb+0x76>
     da6:	fa 94       	dec	r15
     da8:	79 f7       	brne	.-34     	; 0xd88 <_ZN5Usart4findEPKcb+0x48>
     daa:	80 e0       	ldi	r24, 0x00	; 0
     dac:	05 c0       	rjmp	.+10     	; 0xdb8 <_ZN5Usart4findEPKcb+0x78>
     dae:	80 e0       	ldi	r24, 0x00	; 0
     db0:	03 c0       	rjmp	.+6      	; 0xdb8 <_ZN5Usart4findEPKcb+0x78>
     db2:	80 e0       	ldi	r24, 0x00	; 0
     db4:	01 c0       	rjmp	.+2      	; 0xdb8 <_ZN5Usart4findEPKcb+0x78>
     db6:	81 e0       	ldi	r24, 0x01	; 1
     db8:	df 91       	pop	r29
     dba:	cf 91       	pop	r28
     dbc:	1f 91       	pop	r17
     dbe:	0f 91       	pop	r16
     dc0:	ff 90       	pop	r15
     dc2:	ef 90       	pop	r14
     dc4:	df 90       	pop	r13
     dc6:	cf 90       	pop	r12
     dc8:	bf 90       	pop	r11
     dca:	af 90       	pop	r10
     dcc:	08 95       	ret

00000dce <_ZN5Usart10findFromPMEPKcb>:
     dce:	cf 92       	push	r12
     dd0:	df 92       	push	r13
     dd2:	ef 92       	push	r14
     dd4:	ff 92       	push	r15
     dd6:	0f 93       	push	r16
     dd8:	1f 93       	push	r17
     dda:	cf 93       	push	r28
     ddc:	df 93       	push	r29
     dde:	6c 01       	movw	r12, r24
     de0:	7b 01       	movw	r14, r22
     de2:	14 2f       	mov	r17, r20
     de4:	eb 01       	movw	r28, r22
     de6:	21 96       	adiw	r28, 0x01	; 1
     de8:	fb 01       	movw	r30, r22
     dea:	84 91       	lpm	r24, Z+
     dec:	88 23       	and	r24, r24
     dee:	49 f0       	breq	.+18     	; 0xe02 <_ZN5Usart10findFromPMEPKcb+0x34>
     df0:	ce 01       	movw	r24, r28
     df2:	00 e0       	ldi	r16, 0x00	; 0
     df4:	0f 5f       	subi	r16, 0xFF	; 255
     df6:	fc 01       	movw	r30, r24
     df8:	01 96       	adiw	r24, 0x01	; 1
     dfa:	e4 91       	lpm	r30, Z+
     dfc:	ee 23       	and	r30, r30
     dfe:	d1 f7       	brne	.-12     	; 0xdf4 <_ZN5Usart10findFromPMEPKcb+0x26>
     e00:	01 c0       	rjmp	.+2      	; 0xe04 <_ZN5Usart10findFromPMEPKcb+0x36>
     e02:	00 e0       	ldi	r16, 0x00	; 0
     e04:	80 2f       	mov	r24, r16
     e06:	90 e0       	ldi	r25, 0x00	; 0
     e08:	01 96       	adiw	r24, 0x01	; 1
     e0a:	0e 94 56 08 	call	0x10ac	; 0x10ac <malloc>
     e0e:	28 2f       	mov	r18, r24
     e10:	39 2f       	mov	r19, r25
     e12:	f7 01       	movw	r30, r14
     e14:	e4 90       	lpm	r14, Z+
     e16:	ee 20       	and	r14, r14
     e18:	49 f0       	breq	.+18     	; 0xe2c <_ZN5Usart10findFromPMEPKcb+0x5e>
     e1a:	a8 2f       	mov	r26, r24
     e1c:	b9 2f       	mov	r27, r25
     e1e:	ed 92       	st	X+, r14
     e20:	9d 01       	movw	r18, r26
     e22:	fe 01       	movw	r30, r28
     e24:	21 96       	adiw	r28, 0x01	; 1
     e26:	e4 90       	lpm	r14, Z+
     e28:	ee 20       	and	r14, r14
     e2a:	c9 f7       	brne	.-14     	; 0xe1e <_ZN5Usart10findFromPMEPKcb+0x50>
     e2c:	f9 01       	movw	r30, r18
     e2e:	10 82       	st	Z, r1
     e30:	e9 01       	movw	r28, r18
     e32:	c0 1b       	sub	r28, r16
     e34:	d1 09       	sbc	r29, r1
     e36:	c6 01       	movw	r24, r12
     e38:	be 01       	movw	r22, r28
     e3a:	41 2f       	mov	r20, r17
     e3c:	0e 94 a0 06 	call	0xd40	; 0xd40 <_ZN5Usart4findEPKcb>
     e40:	18 2f       	mov	r17, r24
     e42:	ce 01       	movw	r24, r28
     e44:	0e 94 f0 08 	call	0x11e0	; 0x11e0 <free>
     e48:	81 2f       	mov	r24, r17
     e4a:	df 91       	pop	r29
     e4c:	cf 91       	pop	r28
     e4e:	1f 91       	pop	r17
     e50:	0f 91       	pop	r16
     e52:	ff 90       	pop	r15
     e54:	ef 90       	pop	r14
     e56:	df 90       	pop	r13
     e58:	cf 90       	pop	r12
     e5a:	08 95       	ret

00000e5c <_Z8rxVectorh5Usart>:
     e5c:	fb 01       	movw	r30, r22
     e5e:	a0 85       	ldd	r26, Z+8	; 0x08
     e60:	b1 85       	ldd	r27, Z+9	; 0x09
     e62:	8c 93       	st	X, r24
     e64:	80 85       	ldd	r24, Z+8	; 0x08
     e66:	91 85       	ldd	r25, Z+9	; 0x09
     e68:	01 96       	adiw	r24, 0x01	; 1
     e6a:	91 87       	std	Z+9, r25	; 0x09
     e6c:	80 87       	std	Z+8, r24	; 0x08
     e6e:	22 81       	ldd	r18, Z+2	; 0x02
     e70:	33 81       	ldd	r19, Z+3	; 0x03
     e72:	82 17       	cp	r24, r18
     e74:	93 07       	cpc	r25, r19
     e76:	21 f4       	brne	.+8      	; 0xe80 <_Z8rxVectorh5Usart+0x24>
     e78:	80 81       	ld	r24, Z
     e7a:	91 81       	ldd	r25, Z+1	; 0x01
     e7c:	91 87       	std	Z+9, r25	; 0x09
     e7e:	80 87       	std	Z+8, r24	; 0x08
     e80:	42 85       	ldd	r20, Z+10	; 0x0a
     e82:	53 85       	ldd	r21, Z+11	; 0x0b
     e84:	86 85       	ldd	r24, Z+14	; 0x0e
     e86:	97 85       	ldd	r25, Z+15	; 0x0f
     e88:	48 17       	cp	r20, r24
     e8a:	59 07       	cpc	r21, r25
     e8c:	99 f4       	brne	.+38     	; 0xeb4 <_Z8rxVectorh5Usart+0x58>
     e8e:	84 85       	ldd	r24, Z+12	; 0x0c
     e90:	95 85       	ldd	r25, Z+13	; 0x0d
     e92:	01 96       	adiw	r24, 0x01	; 1
     e94:	95 87       	std	Z+13, r25	; 0x0d
     e96:	84 87       	std	Z+12, r24	; 0x0c
     e98:	84 81       	ldd	r24, Z+4	; 0x04
     e9a:	95 81       	ldd	r25, Z+5	; 0x05
     e9c:	01 96       	adiw	r24, 0x01	; 1
     e9e:	28 17       	cp	r18, r24
     ea0:	39 07       	cpc	r19, r25
     ea2:	29 f4       	brne	.+10     	; 0xeae <_Z8rxVectorh5Usart+0x52>
     ea4:	80 81       	ld	r24, Z
     ea6:	91 81       	ldd	r25, Z+1	; 0x01
     ea8:	95 83       	std	Z+5, r25	; 0x05
     eaa:	84 83       	std	Z+4, r24	; 0x04
     eac:	08 95       	ret
     eae:	95 83       	std	Z+5, r25	; 0x05
     eb0:	84 83       	std	Z+4, r24	; 0x04
     eb2:	08 95       	ret
     eb4:	82 85       	ldd	r24, Z+10	; 0x0a
     eb6:	93 85       	ldd	r25, Z+11	; 0x0b
     eb8:	01 96       	adiw	r24, 0x01	; 1
     eba:	93 87       	std	Z+11, r25	; 0x0b
     ebc:	82 87       	std	Z+10, r24	; 0x0a
     ebe:	08 95       	ret

00000ec0 <USART0_RX_vect>:
     ec0:	1f 92       	push	r1
     ec2:	0f 92       	push	r0
     ec4:	0f b6       	in	r0, 0x3f	; 63
     ec6:	0f 92       	push	r0
     ec8:	11 24       	eor	r1, r1
     eca:	0f 93       	push	r16
     ecc:	1f 93       	push	r17
     ece:	2f 93       	push	r18
     ed0:	3f 93       	push	r19
     ed2:	4f 93       	push	r20
     ed4:	5f 93       	push	r21
     ed6:	6f 93       	push	r22
     ed8:	7f 93       	push	r23
     eda:	8f 93       	push	r24
     edc:	9f 93       	push	r25
     ede:	af 93       	push	r26
     ee0:	bf 93       	push	r27
     ee2:	ef 93       	push	r30
     ee4:	ff 93       	push	r31
     ee6:	df 93       	push	r29
     ee8:	cf 93       	push	r28
     eea:	cd b7       	in	r28, 0x3d	; 61
     eec:	de b7       	in	r29, 0x3e	; 62
     eee:	ae 97       	sbiw	r28, 0x2e	; 46
     ef0:	de bf       	out	0x3e, r29	; 62
     ef2:	cd bf       	out	0x3d, r28	; 61
     ef4:	80 91 c6 00 	lds	r24, 0x00C6
     ef8:	de 01       	movw	r26, r28
     efa:	11 96       	adiw	r26, 0x01	; 1
     efc:	e5 e4       	ldi	r30, 0x45	; 69
     efe:	f1 e0       	ldi	r31, 0x01	; 1
     f00:	9e e2       	ldi	r25, 0x2E	; 46
     f02:	01 90       	ld	r0, Z+
     f04:	0d 92       	st	X+, r0
     f06:	91 50       	subi	r25, 0x01	; 1
     f08:	e1 f7       	brne	.-8      	; 0xf02 <USART0_RX_vect+0x42>
     f0a:	8e 01       	movw	r16, r28
     f0c:	0f 5f       	subi	r16, 0xFF	; 255
     f0e:	1f 4f       	sbci	r17, 0xFF	; 255
     f10:	b8 01       	movw	r22, r16
     f12:	0e 94 2e 07 	call	0xe5c	; 0xe5c <_Z8rxVectorh5Usart>
     f16:	c8 01       	movw	r24, r16
     f18:	0e 94 03 02 	call	0x406	; 0x406 <_ZN5UsartD1Ev>
     f1c:	ae 96       	adiw	r28, 0x2e	; 46
     f1e:	de bf       	out	0x3e, r29	; 62
     f20:	cd bf       	out	0x3d, r28	; 61
     f22:	cf 91       	pop	r28
     f24:	df 91       	pop	r29
     f26:	ff 91       	pop	r31
     f28:	ef 91       	pop	r30
     f2a:	bf 91       	pop	r27
     f2c:	af 91       	pop	r26
     f2e:	9f 91       	pop	r25
     f30:	8f 91       	pop	r24
     f32:	7f 91       	pop	r23
     f34:	6f 91       	pop	r22
     f36:	5f 91       	pop	r21
     f38:	4f 91       	pop	r20
     f3a:	3f 91       	pop	r19
     f3c:	2f 91       	pop	r18
     f3e:	1f 91       	pop	r17
     f40:	0f 91       	pop	r16
     f42:	0f 90       	pop	r0
     f44:	0f be       	out	0x3f, r0	; 63
     f46:	0f 90       	pop	r0
     f48:	1f 90       	pop	r1
     f4a:	18 95       	reti

00000f4c <_GLOBAL__I__ZN5UsartC2Eh>:
     f4c:	81 e0       	ldi	r24, 0x01	; 1
     f4e:	90 e0       	ldi	r25, 0x00	; 0
     f50:	6f ef       	ldi	r22, 0xFF	; 255
     f52:	7f ef       	ldi	r23, 0xFF	; 255
     f54:	0e 94 12 04 	call	0x824	; 0x824 <_Z41__static_initialization_and_destruction_0ii>
     f58:	08 95       	ret

00000f5a <_GLOBAL__D__ZN5UsartC2Eh>:
     f5a:	80 e0       	ldi	r24, 0x00	; 0
     f5c:	90 e0       	ldi	r25, 0x00	; 0
     f5e:	6f ef       	ldi	r22, 0xFF	; 255
     f60:	7f ef       	ldi	r23, 0xFF	; 255
     f62:	0e 94 12 04 	call	0x824	; 0x824 <_Z41__static_initialization_and_destruction_0ii>
     f66:	08 95       	ret

00000f68 <_Znwj>:
     f68:	0e 94 56 08 	call	0x10ac	; 0x10ac <malloc>
     f6c:	08 95       	ret

00000f6e <_ZdlPv>:
     f6e:	0e 94 f0 08 	call	0x11e0	; 0x11e0 <free>
     f72:	08 95       	ret

00000f74 <_Z16getFreeMCUMemoryv>:
     f74:	df 93       	push	r29
     f76:	cf 93       	push	r28
     f78:	00 d0       	rcall	.+0      	; 0xf7a <_Z16getFreeMCUMemoryv+0x6>
     f7a:	cd b7       	in	r28, 0x3d	; 61
     f7c:	de b7       	in	r29, 0x3e	; 62
     f7e:	80 91 73 01 	lds	r24, 0x0173
     f82:	90 91 74 01 	lds	r25, 0x0174
     f86:	00 97       	sbiw	r24, 0x00	; 0
     f88:	21 f4       	brne	.+8      	; 0xf92 <_Z16getFreeMCUMemoryv+0x1e>
     f8a:	9e 01       	movw	r18, r28
     f8c:	26 57       	subi	r18, 0x76	; 118
     f8e:	31 40       	sbci	r19, 0x01	; 1
     f90:	05 c0       	rjmp	.+10     	; 0xf9c <_Z16getFreeMCUMemoryv+0x28>
     f92:	9e 01       	movw	r18, r28
     f94:	2f 5f       	subi	r18, 0xFF	; 255
     f96:	3f 4f       	sbci	r19, 0xFF	; 255
     f98:	28 1b       	sub	r18, r24
     f9a:	39 0b       	sbc	r19, r25
     f9c:	82 2f       	mov	r24, r18
     f9e:	93 2f       	mov	r25, r19
     fa0:	0f 90       	pop	r0
     fa2:	0f 90       	pop	r0
     fa4:	cf 91       	pop	r28
     fa6:	df 91       	pop	r29
     fa8:	08 95       	ret

00000faa <_Z9getPMDataPKcj>:
     faa:	1f 93       	push	r17
     fac:	cf 93       	push	r28
     fae:	df 93       	push	r29
     fb0:	ec 01       	movw	r28, r24
     fb2:	16 2f       	mov	r17, r22
     fb4:	66 23       	and	r22, r22
     fb6:	61 f4       	brne	.+24     	; 0xfd0 <_Z9getPMDataPKcj+0x26>
     fb8:	fc 01       	movw	r30, r24
     fba:	84 91       	lpm	r24, Z+
     fbc:	88 23       	and	r24, r24
     fbe:	41 f0       	breq	.+16     	; 0xfd0 <_Z9getPMDataPKcj+0x26>
     fc0:	ce 01       	movw	r24, r28
     fc2:	01 96       	adiw	r24, 0x01	; 1
     fc4:	1f 5f       	subi	r17, 0xFF	; 255
     fc6:	fc 01       	movw	r30, r24
     fc8:	01 96       	adiw	r24, 0x01	; 1
     fca:	e4 91       	lpm	r30, Z+
     fcc:	ee 23       	and	r30, r30
     fce:	d1 f7       	brne	.-12     	; 0xfc4 <_Z9getPMDataPKcj+0x1a>
     fd0:	81 2f       	mov	r24, r17
     fd2:	90 e0       	ldi	r25, 0x00	; 0
     fd4:	01 96       	adiw	r24, 0x01	; 1
     fd6:	0e 94 56 08 	call	0x10ac	; 0x10ac <malloc>
     fda:	28 2f       	mov	r18, r24
     fdc:	39 2f       	mov	r19, r25
     fde:	fe 01       	movw	r30, r28
     fe0:	44 91       	lpm	r20, Z+
     fe2:	44 23       	and	r20, r20
     fe4:	51 f0       	breq	.+20     	; 0xffa <_Z9getPMDataPKcj+0x50>
     fe6:	21 96       	adiw	r28, 0x01	; 1
     fe8:	a8 2f       	mov	r26, r24
     fea:	b9 2f       	mov	r27, r25
     fec:	4d 93       	st	X+, r20
     fee:	9d 01       	movw	r18, r26
     ff0:	fe 01       	movw	r30, r28
     ff2:	21 96       	adiw	r28, 0x01	; 1
     ff4:	44 91       	lpm	r20, Z+
     ff6:	44 23       	and	r20, r20
     ff8:	c9 f7       	brne	.-14     	; 0xfec <_Z9getPMDataPKcj+0x42>
     ffa:	f9 01       	movw	r30, r18
     ffc:	10 82       	st	Z, r1
     ffe:	21 1b       	sub	r18, r17
    1000:	31 09       	sbc	r19, r1
    1002:	82 2f       	mov	r24, r18
    1004:	93 2f       	mov	r25, r19
    1006:	df 91       	pop	r29
    1008:	cf 91       	pop	r28
    100a:	1f 91       	pop	r17
    100c:	08 95       	ret

0000100e <__divmodhi4>:
    100e:	97 fb       	bst	r25, 7
    1010:	09 2e       	mov	r0, r25
    1012:	07 26       	eor	r0, r23
    1014:	0a d0       	rcall	.+20     	; 0x102a <__divmodhi4_neg1>
    1016:	77 fd       	sbrc	r23, 7
    1018:	04 d0       	rcall	.+8      	; 0x1022 <__divmodhi4_neg2>
    101a:	2e d0       	rcall	.+92     	; 0x1078 <__udivmodhi4>
    101c:	06 d0       	rcall	.+12     	; 0x102a <__divmodhi4_neg1>
    101e:	00 20       	and	r0, r0
    1020:	1a f4       	brpl	.+6      	; 0x1028 <__divmodhi4_exit>

00001022 <__divmodhi4_neg2>:
    1022:	70 95       	com	r23
    1024:	61 95       	neg	r22
    1026:	7f 4f       	sbci	r23, 0xFF	; 255

00001028 <__divmodhi4_exit>:
    1028:	08 95       	ret

0000102a <__divmodhi4_neg1>:
    102a:	f6 f7       	brtc	.-4      	; 0x1028 <__divmodhi4_exit>
    102c:	90 95       	com	r25
    102e:	81 95       	neg	r24
    1030:	9f 4f       	sbci	r25, 0xFF	; 255
    1032:	08 95       	ret

00001034 <__udivmodsi4>:
    1034:	a1 e2       	ldi	r26, 0x21	; 33
    1036:	1a 2e       	mov	r1, r26
    1038:	aa 1b       	sub	r26, r26
    103a:	bb 1b       	sub	r27, r27
    103c:	fd 01       	movw	r30, r26
    103e:	0d c0       	rjmp	.+26     	; 0x105a <__udivmodsi4_ep>

00001040 <__udivmodsi4_loop>:
    1040:	aa 1f       	adc	r26, r26
    1042:	bb 1f       	adc	r27, r27
    1044:	ee 1f       	adc	r30, r30
    1046:	ff 1f       	adc	r31, r31
    1048:	a2 17       	cp	r26, r18
    104a:	b3 07       	cpc	r27, r19
    104c:	e4 07       	cpc	r30, r20
    104e:	f5 07       	cpc	r31, r21
    1050:	20 f0       	brcs	.+8      	; 0x105a <__udivmodsi4_ep>
    1052:	a2 1b       	sub	r26, r18
    1054:	b3 0b       	sbc	r27, r19
    1056:	e4 0b       	sbc	r30, r20
    1058:	f5 0b       	sbc	r31, r21

0000105a <__udivmodsi4_ep>:
    105a:	66 1f       	adc	r22, r22
    105c:	77 1f       	adc	r23, r23
    105e:	88 1f       	adc	r24, r24
    1060:	99 1f       	adc	r25, r25
    1062:	1a 94       	dec	r1
    1064:	69 f7       	brne	.-38     	; 0x1040 <__udivmodsi4_loop>
    1066:	60 95       	com	r22
    1068:	70 95       	com	r23
    106a:	80 95       	com	r24
    106c:	90 95       	com	r25
    106e:	9b 01       	movw	r18, r22
    1070:	ac 01       	movw	r20, r24
    1072:	bd 01       	movw	r22, r26
    1074:	cf 01       	movw	r24, r30
    1076:	08 95       	ret

00001078 <__udivmodhi4>:
    1078:	aa 1b       	sub	r26, r26
    107a:	bb 1b       	sub	r27, r27
    107c:	51 e1       	ldi	r21, 0x11	; 17
    107e:	07 c0       	rjmp	.+14     	; 0x108e <__udivmodhi4_ep>

00001080 <__udivmodhi4_loop>:
    1080:	aa 1f       	adc	r26, r26
    1082:	bb 1f       	adc	r27, r27
    1084:	a6 17       	cp	r26, r22
    1086:	b7 07       	cpc	r27, r23
    1088:	10 f0       	brcs	.+4      	; 0x108e <__udivmodhi4_ep>
    108a:	a6 1b       	sub	r26, r22
    108c:	b7 0b       	sbc	r27, r23

0000108e <__udivmodhi4_ep>:
    108e:	88 1f       	adc	r24, r24
    1090:	99 1f       	adc	r25, r25
    1092:	5a 95       	dec	r21
    1094:	a9 f7       	brne	.-22     	; 0x1080 <__udivmodhi4_loop>
    1096:	80 95       	com	r24
    1098:	90 95       	com	r25
    109a:	bc 01       	movw	r22, r24
    109c:	cd 01       	movw	r24, r26
    109e:	08 95       	ret

000010a0 <__tablejump2__>:
    10a0:	ee 0f       	add	r30, r30
    10a2:	ff 1f       	adc	r31, r31

000010a4 <__tablejump__>:
    10a4:	05 90       	lpm	r0, Z+
    10a6:	f4 91       	lpm	r31, Z+
    10a8:	e0 2d       	mov	r30, r0
    10aa:	09 94       	ijmp

000010ac <malloc>:
    10ac:	cf 93       	push	r28
    10ae:	df 93       	push	r29
    10b0:	82 30       	cpi	r24, 0x02	; 2
    10b2:	91 05       	cpc	r25, r1
    10b4:	10 f4       	brcc	.+4      	; 0x10ba <malloc+0xe>
    10b6:	82 e0       	ldi	r24, 0x02	; 2
    10b8:	90 e0       	ldi	r25, 0x00	; 0
    10ba:	e0 91 75 01 	lds	r30, 0x0175
    10be:	f0 91 76 01 	lds	r31, 0x0176
    10c2:	40 e0       	ldi	r20, 0x00	; 0
    10c4:	50 e0       	ldi	r21, 0x00	; 0
    10c6:	20 e0       	ldi	r18, 0x00	; 0
    10c8:	30 e0       	ldi	r19, 0x00	; 0
    10ca:	26 c0       	rjmp	.+76     	; 0x1118 <malloc+0x6c>
    10cc:	60 81       	ld	r22, Z
    10ce:	71 81       	ldd	r23, Z+1	; 0x01
    10d0:	68 17       	cp	r22, r24
    10d2:	79 07       	cpc	r23, r25
    10d4:	e0 f0       	brcs	.+56     	; 0x110e <malloc+0x62>
    10d6:	68 17       	cp	r22, r24
    10d8:	79 07       	cpc	r23, r25
    10da:	81 f4       	brne	.+32     	; 0x10fc <malloc+0x50>
    10dc:	82 81       	ldd	r24, Z+2	; 0x02
    10de:	93 81       	ldd	r25, Z+3	; 0x03
    10e0:	21 15       	cp	r18, r1
    10e2:	31 05       	cpc	r19, r1
    10e4:	31 f0       	breq	.+12     	; 0x10f2 <malloc+0x46>
    10e6:	d9 01       	movw	r26, r18
    10e8:	13 96       	adiw	r26, 0x03	; 3
    10ea:	9c 93       	st	X, r25
    10ec:	8e 93       	st	-X, r24
    10ee:	12 97       	sbiw	r26, 0x02	; 2
    10f0:	2b c0       	rjmp	.+86     	; 0x1148 <malloc+0x9c>
    10f2:	90 93 76 01 	sts	0x0176, r25
    10f6:	80 93 75 01 	sts	0x0175, r24
    10fa:	26 c0       	rjmp	.+76     	; 0x1148 <malloc+0x9c>
    10fc:	41 15       	cp	r20, r1
    10fe:	51 05       	cpc	r21, r1
    1100:	19 f0       	breq	.+6      	; 0x1108 <malloc+0x5c>
    1102:	64 17       	cp	r22, r20
    1104:	75 07       	cpc	r23, r21
    1106:	18 f4       	brcc	.+6      	; 0x110e <malloc+0x62>
    1108:	ab 01       	movw	r20, r22
    110a:	e9 01       	movw	r28, r18
    110c:	df 01       	movw	r26, r30
    110e:	9f 01       	movw	r18, r30
    1110:	72 81       	ldd	r23, Z+2	; 0x02
    1112:	63 81       	ldd	r22, Z+3	; 0x03
    1114:	e7 2f       	mov	r30, r23
    1116:	f6 2f       	mov	r31, r22
    1118:	30 97       	sbiw	r30, 0x00	; 0
    111a:	c1 f6       	brne	.-80     	; 0x10cc <malloc+0x20>
    111c:	41 15       	cp	r20, r1
    111e:	51 05       	cpc	r21, r1
    1120:	01 f1       	breq	.+64     	; 0x1162 <malloc+0xb6>
    1122:	48 1b       	sub	r20, r24
    1124:	59 0b       	sbc	r21, r25
    1126:	44 30       	cpi	r20, 0x04	; 4
    1128:	51 05       	cpc	r21, r1
    112a:	80 f4       	brcc	.+32     	; 0x114c <malloc+0xa0>
    112c:	12 96       	adiw	r26, 0x02	; 2
    112e:	8d 91       	ld	r24, X+
    1130:	9c 91       	ld	r25, X
    1132:	13 97       	sbiw	r26, 0x03	; 3
    1134:	20 97       	sbiw	r28, 0x00	; 0
    1136:	19 f0       	breq	.+6      	; 0x113e <malloc+0x92>
    1138:	9b 83       	std	Y+3, r25	; 0x03
    113a:	8a 83       	std	Y+2, r24	; 0x02
    113c:	04 c0       	rjmp	.+8      	; 0x1146 <malloc+0x9a>
    113e:	90 93 76 01 	sts	0x0176, r25
    1142:	80 93 75 01 	sts	0x0175, r24
    1146:	fd 01       	movw	r30, r26
    1148:	32 96       	adiw	r30, 0x02	; 2
    114a:	46 c0       	rjmp	.+140    	; 0x11d8 <malloc+0x12c>
    114c:	fd 01       	movw	r30, r26
    114e:	e4 0f       	add	r30, r20
    1150:	f5 1f       	adc	r31, r21
    1152:	81 93       	st	Z+, r24
    1154:	91 93       	st	Z+, r25
    1156:	42 50       	subi	r20, 0x02	; 2
    1158:	50 40       	sbci	r21, 0x00	; 0
    115a:	11 96       	adiw	r26, 0x01	; 1
    115c:	5c 93       	st	X, r21
    115e:	4e 93       	st	-X, r20
    1160:	3b c0       	rjmp	.+118    	; 0x11d8 <malloc+0x12c>
    1162:	20 91 73 01 	lds	r18, 0x0173
    1166:	30 91 74 01 	lds	r19, 0x0174
    116a:	21 15       	cp	r18, r1
    116c:	31 05       	cpc	r19, r1
    116e:	41 f4       	brne	.+16     	; 0x1180 <malloc+0xd4>
    1170:	20 91 25 01 	lds	r18, 0x0125
    1174:	30 91 26 01 	lds	r19, 0x0126
    1178:	30 93 74 01 	sts	0x0174, r19
    117c:	20 93 73 01 	sts	0x0173, r18
    1180:	20 91 27 01 	lds	r18, 0x0127
    1184:	30 91 28 01 	lds	r19, 0x0128
    1188:	21 15       	cp	r18, r1
    118a:	31 05       	cpc	r19, r1
    118c:	41 f4       	brne	.+16     	; 0x119e <malloc+0xf2>
    118e:	2d b7       	in	r18, 0x3d	; 61
    1190:	3e b7       	in	r19, 0x3e	; 62
    1192:	40 91 23 01 	lds	r20, 0x0123
    1196:	50 91 24 01 	lds	r21, 0x0124
    119a:	24 1b       	sub	r18, r20
    119c:	35 0b       	sbc	r19, r21
    119e:	e0 91 73 01 	lds	r30, 0x0173
    11a2:	f0 91 74 01 	lds	r31, 0x0174
    11a6:	e2 17       	cp	r30, r18
    11a8:	f3 07       	cpc	r31, r19
    11aa:	a0 f4       	brcc	.+40     	; 0x11d4 <malloc+0x128>
    11ac:	2e 1b       	sub	r18, r30
    11ae:	3f 0b       	sbc	r19, r31
    11b0:	28 17       	cp	r18, r24
    11b2:	39 07       	cpc	r19, r25
    11b4:	78 f0       	brcs	.+30     	; 0x11d4 <malloc+0x128>
    11b6:	ac 01       	movw	r20, r24
    11b8:	4e 5f       	subi	r20, 0xFE	; 254
    11ba:	5f 4f       	sbci	r21, 0xFF	; 255
    11bc:	24 17       	cp	r18, r20
    11be:	35 07       	cpc	r19, r21
    11c0:	48 f0       	brcs	.+18     	; 0x11d4 <malloc+0x128>
    11c2:	4e 0f       	add	r20, r30
    11c4:	5f 1f       	adc	r21, r31
    11c6:	50 93 74 01 	sts	0x0174, r21
    11ca:	40 93 73 01 	sts	0x0173, r20
    11ce:	81 93       	st	Z+, r24
    11d0:	91 93       	st	Z+, r25
    11d2:	02 c0       	rjmp	.+4      	; 0x11d8 <malloc+0x12c>
    11d4:	e0 e0       	ldi	r30, 0x00	; 0
    11d6:	f0 e0       	ldi	r31, 0x00	; 0
    11d8:	cf 01       	movw	r24, r30
    11da:	df 91       	pop	r29
    11dc:	cf 91       	pop	r28
    11de:	08 95       	ret

000011e0 <free>:
    11e0:	cf 93       	push	r28
    11e2:	df 93       	push	r29
    11e4:	00 97       	sbiw	r24, 0x00	; 0
    11e6:	09 f4       	brne	.+2      	; 0x11ea <free+0xa>
    11e8:	91 c0       	rjmp	.+290    	; 0x130c <free+0x12c>
    11ea:	fc 01       	movw	r30, r24
    11ec:	32 97       	sbiw	r30, 0x02	; 2
    11ee:	13 82       	std	Z+3, r1	; 0x03
    11f0:	12 82       	std	Z+2, r1	; 0x02
    11f2:	60 91 75 01 	lds	r22, 0x0175
    11f6:	70 91 76 01 	lds	r23, 0x0176
    11fa:	61 15       	cp	r22, r1
    11fc:	71 05       	cpc	r23, r1
    11fe:	81 f4       	brne	.+32     	; 0x1220 <free+0x40>
    1200:	20 81       	ld	r18, Z
    1202:	31 81       	ldd	r19, Z+1	; 0x01
    1204:	28 0f       	add	r18, r24
    1206:	39 1f       	adc	r19, r25
    1208:	80 91 73 01 	lds	r24, 0x0173
    120c:	90 91 74 01 	lds	r25, 0x0174
    1210:	82 17       	cp	r24, r18
    1212:	93 07       	cpc	r25, r19
    1214:	99 f5       	brne	.+102    	; 0x127c <free+0x9c>
    1216:	f0 93 74 01 	sts	0x0174, r31
    121a:	e0 93 73 01 	sts	0x0173, r30
    121e:	76 c0       	rjmp	.+236    	; 0x130c <free+0x12c>
    1220:	db 01       	movw	r26, r22
    1222:	80 e0       	ldi	r24, 0x00	; 0
    1224:	90 e0       	ldi	r25, 0x00	; 0
    1226:	02 c0       	rjmp	.+4      	; 0x122c <free+0x4c>
    1228:	cd 01       	movw	r24, r26
    122a:	d9 01       	movw	r26, r18
    122c:	ae 17       	cp	r26, r30
    122e:	bf 07       	cpc	r27, r31
    1230:	48 f4       	brcc	.+18     	; 0x1244 <free+0x64>
    1232:	12 96       	adiw	r26, 0x02	; 2
    1234:	2d 91       	ld	r18, X+
    1236:	3c 91       	ld	r19, X
    1238:	13 97       	sbiw	r26, 0x03	; 3
    123a:	21 15       	cp	r18, r1
    123c:	31 05       	cpc	r19, r1
    123e:	a1 f7       	brne	.-24     	; 0x1228 <free+0x48>
    1240:	cd 01       	movw	r24, r26
    1242:	21 c0       	rjmp	.+66     	; 0x1286 <free+0xa6>
    1244:	b3 83       	std	Z+3, r27	; 0x03
    1246:	a2 83       	std	Z+2, r26	; 0x02
    1248:	ef 01       	movw	r28, r30
    124a:	49 91       	ld	r20, Y+
    124c:	59 91       	ld	r21, Y+
    124e:	9e 01       	movw	r18, r28
    1250:	24 0f       	add	r18, r20
    1252:	35 1f       	adc	r19, r21
    1254:	a2 17       	cp	r26, r18
    1256:	b3 07       	cpc	r27, r19
    1258:	79 f4       	brne	.+30     	; 0x1278 <free+0x98>
    125a:	2d 91       	ld	r18, X+
    125c:	3c 91       	ld	r19, X
    125e:	11 97       	sbiw	r26, 0x01	; 1
    1260:	24 0f       	add	r18, r20
    1262:	35 1f       	adc	r19, r21
    1264:	2e 5f       	subi	r18, 0xFE	; 254
    1266:	3f 4f       	sbci	r19, 0xFF	; 255
    1268:	31 83       	std	Z+1, r19	; 0x01
    126a:	20 83       	st	Z, r18
    126c:	12 96       	adiw	r26, 0x02	; 2
    126e:	2d 91       	ld	r18, X+
    1270:	3c 91       	ld	r19, X
    1272:	13 97       	sbiw	r26, 0x03	; 3
    1274:	33 83       	std	Z+3, r19	; 0x03
    1276:	22 83       	std	Z+2, r18	; 0x02
    1278:	00 97       	sbiw	r24, 0x00	; 0
    127a:	29 f4       	brne	.+10     	; 0x1286 <free+0xa6>
    127c:	f0 93 76 01 	sts	0x0176, r31
    1280:	e0 93 75 01 	sts	0x0175, r30
    1284:	43 c0       	rjmp	.+134    	; 0x130c <free+0x12c>
    1286:	dc 01       	movw	r26, r24
    1288:	13 96       	adiw	r26, 0x03	; 3
    128a:	fc 93       	st	X, r31
    128c:	ee 93       	st	-X, r30
    128e:	12 97       	sbiw	r26, 0x02	; 2
    1290:	4d 91       	ld	r20, X+
    1292:	5d 91       	ld	r21, X+
    1294:	a4 0f       	add	r26, r20
    1296:	b5 1f       	adc	r27, r21
    1298:	ea 17       	cp	r30, r26
    129a:	fb 07       	cpc	r31, r27
    129c:	69 f4       	brne	.+26     	; 0x12b8 <free+0xd8>
    129e:	20 81       	ld	r18, Z
    12a0:	31 81       	ldd	r19, Z+1	; 0x01
    12a2:	24 0f       	add	r18, r20
    12a4:	35 1f       	adc	r19, r21
    12a6:	2e 5f       	subi	r18, 0xFE	; 254
    12a8:	3f 4f       	sbci	r19, 0xFF	; 255
    12aa:	ec 01       	movw	r28, r24
    12ac:	39 83       	std	Y+1, r19	; 0x01
    12ae:	28 83       	st	Y, r18
    12b0:	22 81       	ldd	r18, Z+2	; 0x02
    12b2:	33 81       	ldd	r19, Z+3	; 0x03
    12b4:	3b 83       	std	Y+3, r19	; 0x03
    12b6:	2a 83       	std	Y+2, r18	; 0x02
    12b8:	e0 e0       	ldi	r30, 0x00	; 0
    12ba:	f0 e0       	ldi	r31, 0x00	; 0
    12bc:	02 c0       	rjmp	.+4      	; 0x12c2 <free+0xe2>
    12be:	fb 01       	movw	r30, r22
    12c0:	bc 01       	movw	r22, r24
    12c2:	db 01       	movw	r26, r22
    12c4:	12 96       	adiw	r26, 0x02	; 2
    12c6:	8d 91       	ld	r24, X+
    12c8:	9c 91       	ld	r25, X
    12ca:	13 97       	sbiw	r26, 0x03	; 3
    12cc:	00 97       	sbiw	r24, 0x00	; 0
    12ce:	b9 f7       	brne	.-18     	; 0x12be <free+0xde>
    12d0:	9b 01       	movw	r18, r22
    12d2:	2e 5f       	subi	r18, 0xFE	; 254
    12d4:	3f 4f       	sbci	r19, 0xFF	; 255
    12d6:	8d 91       	ld	r24, X+
    12d8:	9c 91       	ld	r25, X
    12da:	11 97       	sbiw	r26, 0x01	; 1
    12dc:	82 0f       	add	r24, r18
    12de:	93 1f       	adc	r25, r19
    12e0:	40 91 73 01 	lds	r20, 0x0173
    12e4:	50 91 74 01 	lds	r21, 0x0174
    12e8:	48 17       	cp	r20, r24
    12ea:	59 07       	cpc	r21, r25
    12ec:	79 f4       	brne	.+30     	; 0x130c <free+0x12c>
    12ee:	30 97       	sbiw	r30, 0x00	; 0
    12f0:	29 f4       	brne	.+10     	; 0x12fc <free+0x11c>
    12f2:	10 92 76 01 	sts	0x0176, r1
    12f6:	10 92 75 01 	sts	0x0175, r1
    12fa:	02 c0       	rjmp	.+4      	; 0x1300 <free+0x120>
    12fc:	13 82       	std	Z+3, r1	; 0x03
    12fe:	12 82       	std	Z+2, r1	; 0x02
    1300:	22 50       	subi	r18, 0x02	; 2
    1302:	30 40       	sbci	r19, 0x00	; 0
    1304:	30 93 74 01 	sts	0x0174, r19
    1308:	20 93 73 01 	sts	0x0173, r18
    130c:	df 91       	pop	r29
    130e:	cf 91       	pop	r28
    1310:	08 95       	ret

00001312 <__do_global_dtors>:
    1312:	10 e0       	ldi	r17, 0x00	; 0
    1314:	cc e6       	ldi	r28, 0x6C	; 108
    1316:	d0 e0       	ldi	r29, 0x00	; 0
    1318:	04 c0       	rjmp	.+8      	; 0x1322 <__do_global_dtors+0x10>
    131a:	fe 01       	movw	r30, r28
    131c:	0e 94 52 08 	call	0x10a4	; 0x10a4 <__tablejump__>
    1320:	22 96       	adiw	r28, 0x02	; 2
    1322:	c0 37       	cpi	r28, 0x70	; 112
    1324:	d1 07       	cpc	r29, r17
    1326:	c9 f7       	brne	.-14     	; 0x131a <__do_global_dtors+0x8>
    1328:	f8 94       	cli

0000132a <__stop_program>:
    132a:	ff cf       	rjmp	.-2      	; 0x132a <__stop_program>
